Archive member included to satisfy reference by file (symbol)

/home/ldq/rk-linux/prebuilts/gcc-arm-none-eabi-7-2018-q2-update/bin/../lib/gcc/arm-none-eabi/7.3.1/thumb/v7-m/libgcc.a(_arm_addsubdf3.o)
                              build/kernel/components/libc/compilers/minilibc/math.o (__aeabi_dsub)
/home/ldq/rk-linux/prebuilts/gcc-arm-none-eabi-7-2018-q2-update/bin/../lib/gcc/arm-none-eabi/7.3.1/thumb/v7-m/libgcc.a(_arm_muldivdf3.o)
                              build/kernel/components/libc/compilers/minilibc/math.o (__aeabi_dmul)
/home/ldq/rk-linux/prebuilts/gcc-arm-none-eabi-7-2018-q2-update/bin/../lib/gcc/arm-none-eabi/7.3.1/thumb/v7-m/libgcc.a(_arm_fixdfsi.o)
                              build/kernel/components/libc/compilers/minilibc/math.o (__aeabi_d2iz)
/home/ldq/rk-linux/prebuilts/gcc-arm-none-eabi-7-2018-q2-update/bin/../lib/gcc/arm-none-eabi/7.3.1/../../../../arm-none-eabi/lib/thumb/v7-m/libc.a(lib_a-exit.o)
                              /home/ldq/rk-linux/prebuilts/gcc-arm-none-eabi-7-2018-q2-update/bin/../lib/gcc/arm-none-eabi/7.3.1/../../../../arm-none-eabi/lib/thumb/v7-m/crt0.o (exit)
/home/ldq/rk-linux/prebuilts/gcc-arm-none-eabi-7-2018-q2-update/bin/../lib/gcc/arm-none-eabi/7.3.1/../../../../arm-none-eabi/lib/thumb/v7-m/libc.a(lib_a-impure.o)
                              /home/ldq/rk-linux/prebuilts/gcc-arm-none-eabi-7-2018-q2-update/bin/../lib/gcc/arm-none-eabi/7.3.1/../../../../arm-none-eabi/lib/thumb/v7-m/libc.a(lib_a-exit.o) (_global_impure_ptr)
/home/ldq/rk-linux/prebuilts/gcc-arm-none-eabi-7-2018-q2-update/bin/../lib/gcc/arm-none-eabi/7.3.1/../../../../arm-none-eabi/lib/thumb/v7-m/libc.a(lib_a-init.o)
                              /home/ldq/rk-linux/prebuilts/gcc-arm-none-eabi-7-2018-q2-update/bin/../lib/gcc/arm-none-eabi/7.3.1/../../../../arm-none-eabi/lib/thumb/v7-m/crt0.o (__libc_init_array)
/home/ldq/rk-linux/prebuilts/gcc-arm-none-eabi-7-2018-q2-update/bin/../lib/gcc/arm-none-eabi/7.3.1/../../../../arm-none-eabi/lib/thumb/v7-m/libc.a(lib_a-__call_atexit.o)
                              /home/ldq/rk-linux/prebuilts/gcc-arm-none-eabi-7-2018-q2-update/bin/../lib/gcc/arm-none-eabi/7.3.1/../../../../arm-none-eabi/lib/thumb/v7-m/libc.a(lib_a-exit.o) (__call_exitprocs)
/home/ldq/rk-linux/prebuilts/gcc-arm-none-eabi-7-2018-q2-update/bin/../lib/gcc/arm-none-eabi/7.3.1/../../../../arm-none-eabi/lib/thumb/v7-m/libc.a(lib_a-atexit.o)
                              /home/ldq/rk-linux/prebuilts/gcc-arm-none-eabi-7-2018-q2-update/bin/../lib/gcc/arm-none-eabi/7.3.1/../../../../arm-none-eabi/lib/thumb/v7-m/libc.a(lib_a-__call_atexit.o) (atexit)
/home/ldq/rk-linux/prebuilts/gcc-arm-none-eabi-7-2018-q2-update/bin/../lib/gcc/arm-none-eabi/7.3.1/../../../../arm-none-eabi/lib/thumb/v7-m/libc.a(lib_a-fini.o)
                              /home/ldq/rk-linux/prebuilts/gcc-arm-none-eabi-7-2018-q2-update/bin/../lib/gcc/arm-none-eabi/7.3.1/../../../../arm-none-eabi/lib/thumb/v7-m/libc.a(lib_a-__call_atexit.o) (__libc_fini_array)
/home/ldq/rk-linux/prebuilts/gcc-arm-none-eabi-7-2018-q2-update/bin/../lib/gcc/arm-none-eabi/7.3.1/../../../../arm-none-eabi/lib/thumb/v7-m/libc.a(lib_a-lock.o)
                              /home/ldq/rk-linux/prebuilts/gcc-arm-none-eabi-7-2018-q2-update/bin/../lib/gcc/arm-none-eabi/7.3.1/../../../../arm-none-eabi/lib/thumb/v7-m/libc.a(lib_a-__call_atexit.o) (__retarget_lock_acquire_recursive)
/home/ldq/rk-linux/prebuilts/gcc-arm-none-eabi-7-2018-q2-update/bin/../lib/gcc/arm-none-eabi/7.3.1/../../../../arm-none-eabi/lib/thumb/v7-m/libc.a(lib_a-__atexit.o)
                              /home/ldq/rk-linux/prebuilts/gcc-arm-none-eabi-7-2018-q2-update/bin/../lib/gcc/arm-none-eabi/7.3.1/../../../../arm-none-eabi/lib/thumb/v7-m/libc.a(lib_a-atexit.o) (__register_exitproc)

Allocating common symbols
Common symbol       size              file

__lock___atexit_recursive_mutex
                    0x1               /home/ldq/rk-linux/prebuilts/gcc-arm-none-eabi-7-2018-q2-update/bin/../lib/gcc/arm-none-eabi/7.3.1/../../../../arm-none-eabi/lib/thumb/v7-m/libc.a(lib_a-lock.o)
rt_interrupt_to_thread
                    0x4               build/kernel/libcpu/arm/cortex-m3/cpuport.o
rt_interrupt_from_thread
                    0x4               build/kernel/libcpu/arm/cortex-m3/cpuport.o
__lock___arc4random_mutex
                    0x1               /home/ldq/rk-linux/prebuilts/gcc-arm-none-eabi-7-2018-q2-update/bin/../lib/gcc/arm-none-eabi/7.3.1/../../../../arm-none-eabi/lib/thumb/v7-m/libc.a(lib_a-lock.o)
shell               0x4               build/kernel/components/finsh/shell.o
rt_thread_switch_interrupt_flag
                    0x4               build/kernel/libcpu/arm/cortex-m3/cpuport.o
uwTick              0x4               /home/ldq/rk-linux/rt-thread/bsp/stm32/libraries/STM32F1xx_HAL/STM32F1xx_HAL_Driver/Src/stm32f1xx_hal.o
__lock___env_recursive_mutex
                    0x1               /home/ldq/rk-linux/prebuilts/gcc-arm-none-eabi-7-2018-q2-update/bin/../lib/gcc/arm-none-eabi/7.3.1/../../../../arm-none-eabi/lib/thumb/v7-m/libc.a(lib_a-lock.o)
__lock___sinit_recursive_mutex
                    0x1               /home/ldq/rk-linux/prebuilts/gcc-arm-none-eabi-7-2018-q2-update/bin/../lib/gcc/arm-none-eabi/7.3.1/../../../../arm-none-eabi/lib/thumb/v7-m/libc.a(lib_a-lock.o)
__lock___malloc_recursive_mutex
                    0x1               /home/ldq/rk-linux/prebuilts/gcc-arm-none-eabi-7-2018-q2-update/bin/../lib/gcc/arm-none-eabi/7.3.1/../../../../arm-none-eabi/lib/thumb/v7-m/libc.a(lib_a-lock.o)
rt_thread_priority_table
                    0x100             build/kernel/src/scheduler.o
rt_object_put_hook  0x4               build/kernel/src/object.o
rt_current_priority
                    0x1               build/kernel/src/scheduler.o
rt_assert_hook      0x4               build/kernel/src/kservice.o
rt_object_take_hook
                    0x4               build/kernel/src/object.o
rt_current_thread   0x4               build/kernel/src/scheduler.o
rt_thread_ready_priority_group
                    0x4               build/kernel/src/scheduler.o
rt_thread_defunct   0x8               build/kernel/src/scheduler.o
__lock___at_quick_exit_mutex
                    0x1               /home/ldq/rk-linux/prebuilts/gcc-arm-none-eabi-7-2018-q2-update/bin/../lib/gcc/arm-none-eabi/7.3.1/../../../../arm-none-eabi/lib/thumb/v7-m/libc.a(lib_a-lock.o)
rt_object_trytake_hook
                    0x4               build/kernel/src/object.o
__lock___dd_hash_mutex
                    0x1               /home/ldq/rk-linux/prebuilts/gcc-arm-none-eabi-7-2018-q2-update/bin/../lib/gcc/arm-none-eabi/7.3.1/../../../../arm-none-eabi/lib/thumb/v7-m/libc.a(lib_a-lock.o)
__lock___tz_mutex   0x1               /home/ldq/rk-linux/prebuilts/gcc-arm-none-eabi-7-2018-q2-update/bin/../lib/gcc/arm-none-eabi/7.3.1/../../../../arm-none-eabi/lib/thumb/v7-m/libc.a(lib_a-lock.o)
__lock___sfp_recursive_mutex
                    0x1               /home/ldq/rk-linux/prebuilts/gcc-arm-none-eabi-7-2018-q2-update/bin/../lib/gcc/arm-none-eabi/7.3.1/../../../../arm-none-eabi/lib/thumb/v7-m/libc.a(lib_a-lock.o)

Discarded input sections

 .text          0x0000000000000000        0x0 /home/ldq/rk-linux/prebuilts/gcc-arm-none-eabi-7-2018-q2-update/bin/../lib/gcc/arm-none-eabi/7.3.1/thumb/v7-m/crti.o
 .data          0x0000000000000000        0x0 /home/ldq/rk-linux/prebuilts/gcc-arm-none-eabi-7-2018-q2-update/bin/../lib/gcc/arm-none-eabi/7.3.1/thumb/v7-m/crti.o
 .bss           0x0000000000000000        0x0 /home/ldq/rk-linux/prebuilts/gcc-arm-none-eabi-7-2018-q2-update/bin/../lib/gcc/arm-none-eabi/7.3.1/thumb/v7-m/crti.o
 .data          0x0000000000000000        0x4 /home/ldq/rk-linux/prebuilts/gcc-arm-none-eabi-7-2018-q2-update/bin/../lib/gcc/arm-none-eabi/7.3.1/thumb/v7-m/crtbegin.o
 .fini_array    0x0000000000000000        0x4 /home/ldq/rk-linux/prebuilts/gcc-arm-none-eabi-7-2018-q2-update/bin/../lib/gcc/arm-none-eabi/7.3.1/thumb/v7-m/crtbegin.o
 .text          0x0000000000000000       0x74 /home/ldq/rk-linux/prebuilts/gcc-arm-none-eabi-7-2018-q2-update/bin/../lib/gcc/arm-none-eabi/7.3.1/../../../../arm-none-eabi/lib/thumb/v7-m/crt0.o
 .data          0x0000000000000000        0x0 /home/ldq/rk-linux/prebuilts/gcc-arm-none-eabi-7-2018-q2-update/bin/../lib/gcc/arm-none-eabi/7.3.1/../../../../arm-none-eabi/lib/thumb/v7-m/crt0.o
 .bss           0x0000000000000000        0x0 /home/ldq/rk-linux/prebuilts/gcc-arm-none-eabi-7-2018-q2-update/bin/../lib/gcc/arm-none-eabi/7.3.1/../../../../arm-none-eabi/lib/thumb/v7-m/crt0.o
 .ARM.extab     0x0000000000000000        0x0 /home/ldq/rk-linux/prebuilts/gcc-arm-none-eabi-7-2018-q2-update/bin/../lib/gcc/arm-none-eabi/7.3.1/../../../../arm-none-eabi/lib/thumb/v7-m/crt0.o
 .ARM.exidx     0x0000000000000000        0x8 /home/ldq/rk-linux/prebuilts/gcc-arm-none-eabi-7-2018-q2-update/bin/../lib/gcc/arm-none-eabi/7.3.1/../../../../arm-none-eabi/lib/thumb/v7-m/crt0.o
 .ARM.attributes
                0x0000000000000000       0x1b /home/ldq/rk-linux/prebuilts/gcc-arm-none-eabi-7-2018-q2-update/bin/../lib/gcc/arm-none-eabi/7.3.1/../../../../arm-none-eabi/lib/thumb/v7-m/crt0.o
 .text          0x0000000000000000        0x0 build/applications/main.o
 .data          0x0000000000000000        0x0 build/applications/main.o
 .bss           0x0000000000000000        0x0 build/applications/main.o
 .text          0x0000000000000000        0x0 build/board/board.o
 .data          0x0000000000000000        0x0 build/board/board.o
 .bss           0x0000000000000000        0x0 build/board/board.o
 .text          0x0000000000000000        0x0 build/board/CubeMX_Config/Src/stm32f1xx_hal_msp.o
 .data          0x0000000000000000        0x0 build/board/CubeMX_Config/Src/stm32f1xx_hal_msp.o
 .bss           0x0000000000000000        0x0 build/board/CubeMX_Config/Src/stm32f1xx_hal_msp.o
 .text.HAL_UART_MspDeInit
                0x0000000000000000       0x3c build/board/CubeMX_Config/Src/stm32f1xx_hal_msp.o
 .text          0x0000000000000000       0x14 /home/ldq/rk-linux/rt-thread/bsp/stm32/libraries/STM32F1xx_HAL/CMSIS/Device/ST/STM32F1xx/Source/Templates/gcc/startup_stm32f103xe.o
 .data          0x0000000000000000        0x0 /home/ldq/rk-linux/rt-thread/bsp/stm32/libraries/STM32F1xx_HAL/CMSIS/Device/ST/STM32F1xx/Source/Templates/gcc/startup_stm32f103xe.o
 .bss           0x0000000000000000        0x0 /home/ldq/rk-linux/rt-thread/bsp/stm32/libraries/STM32F1xx_HAL/CMSIS/Device/ST/STM32F1xx/Source/Templates/gcc/startup_stm32f103xe.o
 .text          0x0000000000000000        0x0 build/kernel/src/clock.o
 .data          0x0000000000000000        0x0 build/kernel/src/clock.o
 .bss           0x0000000000000000        0x0 build/kernel/src/clock.o
 .text.rt_system_tick_init
                0x0000000000000000        0xc build/kernel/src/clock.o
 .text.rt_tick_set
                0x0000000000000000       0x28 build/kernel/src/clock.o
 .text          0x0000000000000000        0x0 build/kernel/src/components.o
 .data          0x0000000000000000        0x0 build/kernel/src/components.o
 .bss           0x0000000000000000        0x0 build/kernel/src/components.o
 .text          0x0000000000000000        0x0 build/kernel/src/cpu.o
 .data          0x0000000000000000        0x0 build/kernel/src/cpu.o
 .bss           0x0000000000000000        0x0 build/kernel/src/cpu.o
 .debug_info    0x0000000000000000      0x124 build/kernel/src/cpu.o
 .debug_abbrev  0x0000000000000000       0x9c build/kernel/src/cpu.o
 .debug_aranges
                0x0000000000000000       0x18 build/kernel/src/cpu.o
 .debug_line    0x0000000000000000       0x98 build/kernel/src/cpu.o
 .debug_str     0x0000000000000000      0x1fb build/kernel/src/cpu.o
 .comment       0x0000000000000000       0x80 build/kernel/src/cpu.o
 .ARM.attributes
                0x0000000000000000       0x33 build/kernel/src/cpu.o
 .text          0x0000000000000000        0x0 build/kernel/src/device.o
 .data          0x0000000000000000        0x0 build/kernel/src/device.o
 .bss           0x0000000000000000        0x0 build/kernel/src/device.o
 .text.rt_device_unregister
                0x0000000000000000       0x6c build/kernel/src/device.o
 .text.rt_device_init_all
                0x0000000000000000        0xe build/kernel/src/device.o
 .text.rt_device_create
                0x0000000000000000       0x4c build/kernel/src/device.o
 .text.rt_device_destroy
                0x0000000000000000       0x70 build/kernel/src/device.o
 .text.rt_device_init
                0x0000000000000000       0x74 build/kernel/src/device.o
 .text.rt_device_control
                0x0000000000000000       0x68 build/kernel/src/device.o
 .text.rt_device_set_tx_complete
                0x0000000000000000       0x54 build/kernel/src/device.o
 .rodata.__FUNCTION__.5110
                0x0000000000000000       0x15 build/kernel/src/device.o
 .rodata.__FUNCTION__.5133
                0x0000000000000000       0x12 build/kernel/src/device.o
 .rodata.__FUNCTION__.5138
                0x0000000000000000        0xf build/kernel/src/device.o
 .rodata.__FUNCTION__.5169
                0x0000000000000000       0x12 build/kernel/src/device.o
 .rodata.__FUNCTION__.5183
                0x0000000000000000       0x1a build/kernel/src/device.o
 .text          0x0000000000000000        0x0 build/kernel/src/idle.o
 .data          0x0000000000000000        0x0 build/kernel/src/idle.o
 .bss           0x0000000000000000        0x0 build/kernel/src/idle.o
 .text.rt_thread_idle_sethook
                0x0000000000000000       0x58 build/kernel/src/idle.o
 .text.rt_thread_idle_delhook
                0x0000000000000000       0x58 build/kernel/src/idle.o
 .text.rt_thread_idle_gethandler
                0x0000000000000000       0x18 build/kernel/src/idle.o
 .text          0x0000000000000000        0x0 build/kernel/src/ipc.o
 .data          0x0000000000000000        0x0 build/kernel/src/ipc.o
 .bss           0x0000000000000000        0x0 build/kernel/src/ipc.o
 .text.rt_ipc_list_resume_all
                0x0000000000000000       0x46 build/kernel/src/ipc.o
 .text.rt_sem_detach
                0x0000000000000000       0x74 build/kernel/src/ipc.o
 .text.rt_sem_create
                0x0000000000000000       0x90 build/kernel/src/ipc.o
 .text.rt_sem_delete
                0x0000000000000000       0xac build/kernel/src/ipc.o
 .text.rt_sem_trytake
                0x0000000000000000       0x1a build/kernel/src/ipc.o
 .text.rt_sem_control
                0x0000000000000000       0x84 build/kernel/src/ipc.o
 .text.rt_mutex_init
                0x0000000000000000       0x64 build/kernel/src/ipc.o
 .text.rt_mutex_detach
                0x0000000000000000       0x7c build/kernel/src/ipc.o
 .text.rt_mutex_create
                0x0000000000000000       0x88 build/kernel/src/ipc.o
 .text.rt_mutex_delete
                0x0000000000000000       0xac build/kernel/src/ipc.o
 .text.rt_mutex_take
                0x0000000000000000      0x1d4 build/kernel/src/ipc.o
 .text.rt_mutex_release
                0x0000000000000000      0x190 build/kernel/src/ipc.o
 .text.rt_mutex_control
                0x0000000000000000       0x50 build/kernel/src/ipc.o
 .text.rt_event_init
                0x0000000000000000       0x54 build/kernel/src/ipc.o
 .text.rt_event_detach
                0x0000000000000000       0x7c build/kernel/src/ipc.o
 .text.rt_event_create
                0x0000000000000000       0x74 build/kernel/src/ipc.o
 .text.rt_event_delete
                0x0000000000000000       0xac build/kernel/src/ipc.o
 .text.rt_event_send
                0x0000000000000000      0x148 build/kernel/src/ipc.o
 .text.rt_event_recv
                0x0000000000000000      0x1fc build/kernel/src/ipc.o
 .text.rt_event_control
                0x0000000000000000       0x80 build/kernel/src/ipc.o
 .text.rt_mb_init
                0x0000000000000000       0x78 build/kernel/src/ipc.o
 .text.rt_mb_detach
                0x0000000000000000       0x84 build/kernel/src/ipc.o
 .text.rt_mb_create
                0x0000000000000000       0xbc build/kernel/src/ipc.o
 .text.rt_mb_delete
                0x0000000000000000       0xc0 build/kernel/src/ipc.o
 .text.rt_mb_send_wait
                0x0000000000000000      0x208 build/kernel/src/ipc.o
 .text.rt_mb_send
                0x0000000000000000       0x1e build/kernel/src/ipc.o
 .text.rt_mb_recv
                0x0000000000000000      0x234 build/kernel/src/ipc.o
 .text.rt_mb_control
                0x0000000000000000       0x94 build/kernel/src/ipc.o
 .text.rt_mq_init
                0x0000000000000000       0xc0 build/kernel/src/ipc.o
 .text.rt_mq_detach
                0x0000000000000000       0x7c build/kernel/src/ipc.o
 .text.rt_mq_create
                0x0000000000000000      0x100 build/kernel/src/ipc.o
 .text.rt_mq_delete
                0x0000000000000000       0xb8 build/kernel/src/ipc.o
 .text.rt_mq_send
                0x0000000000000000      0x154 build/kernel/src/ipc.o
 .text.rt_mq_urgent
                0x0000000000000000      0x144 build/kernel/src/ipc.o
 .text.rt_mq_recv
                0x0000000000000000      0x24c build/kernel/src/ipc.o
 .text.rt_mq_control
                0x0000000000000000       0xb4 build/kernel/src/ipc.o
 .rodata.__FUNCTION__.5220
                0x0000000000000000        0xe build/kernel/src/ipc.o
 .rodata.__FUNCTION__.5228
                0x0000000000000000        0xe build/kernel/src/ipc.o
 .rodata.__FUNCTION__.5233
                0x0000000000000000        0xe build/kernel/src/ipc.o
 .rodata.__FUNCTION__.5258
                0x0000000000000000        0xf build/kernel/src/ipc.o
 .rodata.__FUNCTION__.5265
                0x0000000000000000        0xe build/kernel/src/ipc.o
 .rodata.__FUNCTION__.5269
                0x0000000000000000       0x10 build/kernel/src/ipc.o
 .rodata.__FUNCTION__.5276
                0x0000000000000000       0x10 build/kernel/src/ipc.o
 .rodata.__FUNCTION__.5281
                0x0000000000000000       0x10 build/kernel/src/ipc.o
 .rodata.__FUNCTION__.5289
                0x0000000000000000        0xe build/kernel/src/ipc.o
 .rodata.__FUNCTION__.5298
                0x0000000000000000       0x11 build/kernel/src/ipc.o
 .rodata.__FUNCTION__.5306
                0x0000000000000000       0x11 build/kernel/src/ipc.o
 .rodata.__FUNCTION__.5312
                0x0000000000000000        0xe build/kernel/src/ipc.o
 .rodata.__FUNCTION__.5316
                0x0000000000000000       0x10 build/kernel/src/ipc.o
 .rodata.__FUNCTION__.5323
                0x0000000000000000       0x10 build/kernel/src/ipc.o
 .rodata.__FUNCTION__.5327
                0x0000000000000000       0x10 build/kernel/src/ipc.o
 .rodata.__FUNCTION__.5338
                0x0000000000000000        0xe build/kernel/src/ipc.o
 .rodata.__FUNCTION__.5353
                0x0000000000000000        0xe build/kernel/src/ipc.o
 .rodata.__FUNCTION__.5361
                0x0000000000000000       0x11 build/kernel/src/ipc.o
 .rodata.__FUNCTION__.5369
                0x0000000000000000        0xb build/kernel/src/ipc.o
 .rodata.__FUNCTION__.5373
                0x0000000000000000        0xd build/kernel/src/ipc.o
 .rodata.__FUNCTION__.5381
                0x0000000000000000        0xd build/kernel/src/ipc.o
 .rodata.__FUNCTION__.5386
                0x0000000000000000        0xd build/kernel/src/ipc.o
 .rodata.__FUNCTION__.5395
                0x0000000000000000       0x10 build/kernel/src/ipc.o
 .rodata.__FUNCTION__.5413
                0x0000000000000000        0xb build/kernel/src/ipc.o
 .rodata.__FUNCTION__.5425
                0x0000000000000000        0xe build/kernel/src/ipc.o
 .rodata.__FUNCTION__.5438
                0x0000000000000000        0xb build/kernel/src/ipc.o
 .rodata.__FUNCTION__.5445
                0x0000000000000000        0xd build/kernel/src/ipc.o
 .rodata.__FUNCTION__.5456
                0x0000000000000000        0xd build/kernel/src/ipc.o
 .rodata.__FUNCTION__.5464
                0x0000000000000000        0xd build/kernel/src/ipc.o
 .rodata.__FUNCTION__.5472
                0x0000000000000000        0xb build/kernel/src/ipc.o
 .rodata.__FUNCTION__.5480
                0x0000000000000000        0xd build/kernel/src/ipc.o
 .rodata.__FUNCTION__.5491
                0x0000000000000000        0xb build/kernel/src/ipc.o
 .rodata.__FUNCTION__.5504
                0x0000000000000000        0xe build/kernel/src/ipc.o
 .text          0x0000000000000000        0x0 build/kernel/src/irq.o
 .data          0x0000000000000000        0x0 build/kernel/src/irq.o
 .bss           0x0000000000000000        0x0 build/kernel/src/irq.o
 .text.rt_interrupt_enter_sethook
                0x0000000000000000       0x1c build/kernel/src/irq.o
 .text.rt_interrupt_leave_sethook
                0x0000000000000000       0x1c build/kernel/src/irq.o
 .text          0x0000000000000000        0x0 build/kernel/src/kservice.o
 .data          0x0000000000000000        0x0 build/kernel/src/kservice.o
 .bss           0x0000000000000000        0x0 build/kernel/src/kservice.o
 .text.rt_get_errno
                0x0000000000000000       0x38 build/kernel/src/kservice.o
 .text._rt_errno
                0x0000000000000000       0x34 build/kernel/src/kservice.o
 .text.rt_strstr
                0x0000000000000000       0x5e build/kernel/src/kservice.o
 .text.rt_strcasecmp
                0x0000000000000000       0x60 build/kernel/src/kservice.o
 .text.rt_strcmp
                0x0000000000000000       0x42 build/kernel/src/kservice.o
 .text.rt_strnlen
                0x0000000000000000       0x3c build/kernel/src/kservice.o
 .text.rt_strdup
                0x0000000000000000       0x3a build/kernel/src/kservice.o
 .text.rt_snprintf
                0x0000000000000000       0x30 build/kernel/src/kservice.o
 .text.rt_kputs
                0x0000000000000000       0x64 build/kernel/src/kservice.o
 .text.rt_malloc_align
                0x0000000000000000       0x80 build/kernel/src/kservice.o
 .text.rt_free_align
                0x0000000000000000       0x1e build/kernel/src/kservice.o
 .text.rt_assert_set_hook
                0x0000000000000000       0x1c build/kernel/src/kservice.o
 .text          0x0000000000000000        0x0 build/kernel/src/mem.o
 .data          0x0000000000000000        0x0 build/kernel/src/mem.o
 .bss           0x0000000000000000        0x0 build/kernel/src/mem.o
 .text.rt_malloc_sethook
                0x0000000000000000       0x1c build/kernel/src/mem.o
 .text.rt_free_sethook
                0x0000000000000000       0x1c build/kernel/src/mem.o
 .text.rt_realloc
                0x0000000000000000      0x198 build/kernel/src/mem.o
 .text.rt_memory_info
                0x0000000000000000       0x4c build/kernel/src/mem.o
 .rodata.__FUNCTION__.5243
                0x0000000000000000        0xb build/kernel/src/mem.o
 .text          0x0000000000000000        0x0 build/kernel/src/mempool.o
 .data          0x0000000000000000        0x0 build/kernel/src/mempool.o
 .bss           0x0000000000000000        0x0 build/kernel/src/mempool.o
 .text.rt_list_init
                0x0000000000000000       0x20 build/kernel/src/mempool.o
 .text.rt_list_insert_after
                0x0000000000000000       0x30 build/kernel/src/mempool.o
 .text.rt_list_isempty
                0x0000000000000000       0x22 build/kernel/src/mempool.o
 .bss.rt_mp_alloc_hook
                0x0000000000000000        0x4 build/kernel/src/mempool.o
 .bss.rt_mp_free_hook
                0x0000000000000000        0x4 build/kernel/src/mempool.o
 .text.rt_mp_alloc_sethook
                0x0000000000000000       0x1c build/kernel/src/mempool.o
 .text.rt_mp_free_sethook
                0x0000000000000000       0x1c build/kernel/src/mempool.o
 .rodata        0x0000000000000000       0xe9 build/kernel/src/mempool.o
 .text.rt_mp_init
                0x0000000000000000       0xd0 build/kernel/src/mempool.o
 .text.rt_mp_detach
                0x0000000000000000       0xac build/kernel/src/mempool.o
 .text.rt_mp_create
                0x0000000000000000      0x10c build/kernel/src/mempool.o
 .text.rt_mp_delete
                0x0000000000000000       0xec build/kernel/src/mempool.o
 .text.rt_mp_alloc
                0x0000000000000000      0x15c build/kernel/src/mempool.o
 .text.rt_mp_free
                0x0000000000000000       0x88 build/kernel/src/mempool.o
 .rodata.__FUNCTION__.5201
                0x0000000000000000        0xb build/kernel/src/mempool.o
 .rodata.__FUNCTION__.5210
                0x0000000000000000        0xd build/kernel/src/mempool.o
 .rodata.__FUNCTION__.5223
                0x0000000000000000        0xd build/kernel/src/mempool.o
 .rodata.__FUNCTION__.5233
                0x0000000000000000        0xd build/kernel/src/mempool.o
 .rodata.__FUNCTION__.5246
                0x0000000000000000        0xc build/kernel/src/mempool.o
 .debug_info    0x0000000000000000      0x96c build/kernel/src/mempool.o
 .debug_abbrev  0x0000000000000000      0x253 build/kernel/src/mempool.o
 .debug_loc     0x0000000000000000      0x3ac build/kernel/src/mempool.o
 .debug_aranges
                0x0000000000000000       0x70 build/kernel/src/mempool.o
 .debug_ranges  0x0000000000000000       0x60 build/kernel/src/mempool.o
 .debug_line    0x0000000000000000      0x2f0 build/kernel/src/mempool.o
 .debug_str     0x0000000000000000      0x665 build/kernel/src/mempool.o
 .comment       0x0000000000000000       0x80 build/kernel/src/mempool.o
 .debug_frame   0x0000000000000000      0x1c8 build/kernel/src/mempool.o
 .ARM.attributes
                0x0000000000000000       0x33 build/kernel/src/mempool.o
 .text          0x0000000000000000        0x0 build/kernel/src/object.o
 .data          0x0000000000000000        0x0 build/kernel/src/object.o
 .bss           0x0000000000000000        0x0 build/kernel/src/object.o
 .text.rt_object_attach_sethook
                0x0000000000000000       0x1c build/kernel/src/object.o
 .text.rt_object_detach_sethook
                0x0000000000000000       0x1c build/kernel/src/object.o
 .text.rt_object_trytake_sethook
                0x0000000000000000       0x1c build/kernel/src/object.o
 .text.rt_object_take_sethook
                0x0000000000000000       0x1c build/kernel/src/object.o
 .text.rt_object_put_sethook
                0x0000000000000000       0x1c build/kernel/src/object.o
 .text.rt_system_object_init
                0x0000000000000000        0xc build/kernel/src/object.o
 .text.rt_object_find
                0x0000000000000000       0xd0 build/kernel/src/object.o
 .rodata.__FUNCTION__.5276
                0x0000000000000000        0xf build/kernel/src/object.o
 .text          0x0000000000000000        0x0 build/kernel/src/scheduler.o
 .data          0x0000000000000000        0x0 build/kernel/src/scheduler.o
 .bss           0x0000000000000000        0x0 build/kernel/src/scheduler.o
 .text.rt_scheduler_sethook
                0x0000000000000000       0x1c build/kernel/src/scheduler.o
 .text.rt_critical_level
                0x0000000000000000       0x18 build/kernel/src/scheduler.o
 .text          0x0000000000000000        0x0 build/kernel/src/signal.o
 .data          0x0000000000000000        0x0 build/kernel/src/signal.o
 .bss           0x0000000000000000        0x0 build/kernel/src/signal.o
 .debug_info    0x0000000000000000      0x124 build/kernel/src/signal.o
 .debug_abbrev  0x0000000000000000       0x9c build/kernel/src/signal.o
 .debug_aranges
                0x0000000000000000       0x18 build/kernel/src/signal.o
 .debug_line    0x0000000000000000       0x98 build/kernel/src/signal.o
 .debug_str     0x0000000000000000      0x1fe build/kernel/src/signal.o
 .comment       0x0000000000000000       0x80 build/kernel/src/signal.o
 .ARM.attributes
                0x0000000000000000       0x33 build/kernel/src/signal.o
 .text          0x0000000000000000        0x0 build/kernel/src/thread.o
 .data          0x0000000000000000        0x0 build/kernel/src/thread.o
 .bss           0x0000000000000000        0x0 build/kernel/src/thread.o
 .text.rt_thread_suspend_sethook
                0x0000000000000000       0x1c build/kernel/src/thread.o
 .text.rt_thread_resume_sethook
                0x0000000000000000       0x1c build/kernel/src/thread.o
 .text.rt_thread_inited_sethook
                0x0000000000000000       0x1c build/kernel/src/thread.o
 .text.rt_thread_detach
                0x0000000000000000       0xc4 build/kernel/src/thread.o
 .text.rt_thread_delete
                0x0000000000000000       0xa8 build/kernel/src/thread.o
 .text.rt_thread_delay
                0x0000000000000000       0x18 build/kernel/src/thread.o
 .text.rt_thread_control
                0x0000000000000000       0xd4 build/kernel/src/thread.o
 .text.rt_thread_find
                0x0000000000000000       0x94 build/kernel/src/thread.o
 .rodata.__FUNCTION__.5237
                0x0000000000000000       0x11 build/kernel/src/thread.o
 .rodata.__FUNCTION__.5253
                0x0000000000000000       0x11 build/kernel/src/thread.o
 .rodata.__FUNCTION__.5276
                0x0000000000000000       0x12 build/kernel/src/thread.o
 .rodata.__FUNCTION__.5304
                0x0000000000000000        0xf build/kernel/src/thread.o
 .text          0x0000000000000000        0x0 build/kernel/src/timer.o
 .data          0x0000000000000000        0x0 build/kernel/src/timer.o
 .bss           0x0000000000000000        0x0 build/kernel/src/timer.o
 .text.rt_timer_enter_sethook
                0x0000000000000000       0x1c build/kernel/src/timer.o
 .text.rt_timer_exit_sethook
                0x0000000000000000       0x1c build/kernel/src/timer.o
 .text.rt_timer_list_next_timeout
                0x0000000000000000       0x2e build/kernel/src/timer.o
 .text.rt_timer_create
                0x0000000000000000       0x3e build/kernel/src/timer.o
 .text.rt_timer_delete
                0x0000000000000000       0x80 build/kernel/src/timer.o
 .text.rt_timer_next_timeout_tick
                0x0000000000000000       0x14 build/kernel/src/timer.o
 .rodata.__FUNCTION__.5244
                0x0000000000000000       0x10 build/kernel/src/timer.o
 .text          0x0000000000000000        0x0 build/kernel/libcpu/arm/common/backtrace.o
 .data          0x0000000000000000        0x0 build/kernel/libcpu/arm/common/backtrace.o
 .bss           0x0000000000000000        0x0 build/kernel/libcpu/arm/common/backtrace.o
 .rodata        0x0000000000000000       0x19 build/kernel/libcpu/arm/common/backtrace.o
 .text.rt_hw_backtrace
                0x0000000000000000       0x78 build/kernel/libcpu/arm/common/backtrace.o
 .debug_info    0x0000000000000000      0x19e build/kernel/libcpu/arm/common/backtrace.o
 .debug_abbrev  0x0000000000000000       0xf8 build/kernel/libcpu/arm/common/backtrace.o
 .debug_loc     0x0000000000000000       0x50 build/kernel/libcpu/arm/common/backtrace.o
 .debug_aranges
                0x0000000000000000       0x20 build/kernel/libcpu/arm/common/backtrace.o
 .debug_ranges  0x0000000000000000       0x10 build/kernel/libcpu/arm/common/backtrace.o
 .debug_line    0x0000000000000000      0x10b build/kernel/libcpu/arm/common/backtrace.o
 .debug_str     0x0000000000000000      0x243 build/kernel/libcpu/arm/common/backtrace.o
 .comment       0x0000000000000000       0x80 build/kernel/libcpu/arm/common/backtrace.o
 .debug_frame   0x0000000000000000       0x34 build/kernel/libcpu/arm/common/backtrace.o
 .ARM.attributes
                0x0000000000000000       0x33 build/kernel/libcpu/arm/common/backtrace.o
 .text          0x0000000000000000        0x0 build/kernel/libcpu/arm/common/div0.o
 .data          0x0000000000000000        0x0 build/kernel/libcpu/arm/common/div0.o
 .bss           0x0000000000000000        0x0 build/kernel/libcpu/arm/common/div0.o
 .text.__div0   0x0000000000000000        0x6 build/kernel/libcpu/arm/common/div0.o
 .debug_info    0x0000000000000000       0x40 build/kernel/libcpu/arm/common/div0.o
 .debug_abbrev  0x0000000000000000       0x2e build/kernel/libcpu/arm/common/div0.o
 .debug_loc     0x0000000000000000       0x2c build/kernel/libcpu/arm/common/div0.o
 .debug_aranges
                0x0000000000000000       0x20 build/kernel/libcpu/arm/common/div0.o
 .debug_ranges  0x0000000000000000       0x10 build/kernel/libcpu/arm/common/div0.o
 .debug_line    0x0000000000000000       0x6a build/kernel/libcpu/arm/common/div0.o
 .debug_str     0x0000000000000000      0x112 build/kernel/libcpu/arm/common/div0.o
 .comment       0x0000000000000000       0x80 build/kernel/libcpu/arm/common/div0.o
 .debug_frame   0x0000000000000000       0x28 build/kernel/libcpu/arm/common/div0.o
 .ARM.attributes
                0x0000000000000000       0x33 build/kernel/libcpu/arm/common/div0.o
 .text          0x0000000000000000        0x0 build/kernel/libcpu/arm/common/showmem.o
 .data          0x0000000000000000        0x0 build/kernel/libcpu/arm/common/showmem.o
 .bss           0x0000000000000000        0x0 build/kernel/libcpu/arm/common/showmem.o
 .rodata        0x0000000000000000       0x22 build/kernel/libcpu/arm/common/showmem.o
 .text.rt_hw_show_memory
                0x0000000000000000       0x94 build/kernel/libcpu/arm/common/showmem.o
 .rodata.__FUNCTION__.5108
                0x0000000000000000       0x12 build/kernel/libcpu/arm/common/showmem.o
 .debug_info    0x0000000000000000      0x1af build/kernel/libcpu/arm/common/showmem.o
 .debug_abbrev  0x0000000000000000       0xf9 build/kernel/libcpu/arm/common/showmem.o
 .debug_loc     0x0000000000000000       0x50 build/kernel/libcpu/arm/common/showmem.o
 .debug_aranges
                0x0000000000000000       0x20 build/kernel/libcpu/arm/common/showmem.o
 .debug_ranges  0x0000000000000000       0x10 build/kernel/libcpu/arm/common/showmem.o
 .debug_line    0x0000000000000000      0x114 build/kernel/libcpu/arm/common/showmem.o
 .debug_str     0x0000000000000000      0x242 build/kernel/libcpu/arm/common/showmem.o
 .comment       0x0000000000000000       0x80 build/kernel/libcpu/arm/common/showmem.o
 .debug_frame   0x0000000000000000       0x34 build/kernel/libcpu/arm/common/showmem.o
 .ARM.attributes
                0x0000000000000000       0x33 build/kernel/libcpu/arm/common/showmem.o
 .text          0x0000000000000000        0x0 build/kernel/libcpu/arm/cortex-m3/cpuport.o
 .data          0x0000000000000000        0x0 build/kernel/libcpu/arm/cortex-m3/cpuport.o
 .bss           0x0000000000000000        0x0 build/kernel/libcpu/arm/cortex-m3/cpuport.o
 .text.rt_hw_exception_install
                0x0000000000000000       0x1c build/kernel/libcpu/arm/cortex-m3/cpuport.o
 .text.rt_hw_cpu_shutdown
                0x0000000000000000       0x28 build/kernel/libcpu/arm/cortex-m3/cpuport.o
 .rodata.__FUNCTION__.5169
                0x0000000000000000       0x13 build/kernel/libcpu/arm/cortex-m3/cpuport.o
 .data          0x0000000000000000        0x0 build/kernel/libcpu/arm/cortex-m3/context_gcc.o
 .bss           0x0000000000000000        0x0 build/kernel/libcpu/arm/cortex-m3/context_gcc.o
 .text          0x0000000000000000        0x0 build/kernel/components/drivers/misc/pin.o
 .data          0x0000000000000000        0x0 build/kernel/components/drivers/misc/pin.o
 .bss           0x0000000000000000        0x0 build/kernel/components/drivers/misc/pin.o
 .text.rt_pin_attach_irq
                0x0000000000000000       0x58 build/kernel/components/drivers/misc/pin.o
 .text.rt_pin_detach_irq
                0x0000000000000000       0x4c build/kernel/components/drivers/misc/pin.o
 .text.rt_pin_irq_enable
                0x0000000000000000       0x50 build/kernel/components/drivers/misc/pin.o
 .rodata.__FUNCTION__.5752
                0x0000000000000000       0x12 build/kernel/components/drivers/misc/pin.o
 .rodata.__FUNCTION__.5756
                0x0000000000000000       0x12 build/kernel/components/drivers/misc/pin.o
 .rodata.__FUNCTION__.5761
                0x0000000000000000       0x12 build/kernel/components/drivers/misc/pin.o
 .text          0x0000000000000000        0x0 build/kernel/components/drivers/serial/serial.o
 .data          0x0000000000000000        0x0 build/kernel/components/drivers/serial/serial.o
 .bss           0x0000000000000000        0x0 build/kernel/components/drivers/serial/serial.o
 .text          0x0000000000000000        0x0 build/kernel/components/drivers/src/completion.o
 .data          0x0000000000000000        0x0 build/kernel/components/drivers/src/completion.o
 .bss           0x0000000000000000        0x0 build/kernel/components/drivers/src/completion.o
 .text          0x0000000000000000        0x0 build/kernel/components/drivers/src/dataqueue.o
 .data          0x0000000000000000        0x0 build/kernel/components/drivers/src/dataqueue.o
 .bss           0x0000000000000000        0x0 build/kernel/components/drivers/src/dataqueue.o
 .text.rt_data_queue_reset
                0x0000000000000000       0x8c build/kernel/components/drivers/src/dataqueue.o
 .text          0x0000000000000000        0x0 build/kernel/components/drivers/src/pipe.o
 .data          0x0000000000000000        0x0 build/kernel/components/drivers/src/pipe.o
 .bss           0x0000000000000000        0x0 build/kernel/components/drivers/src/pipe.o
 .text.rt_list_init
                0x0000000000000000       0x20 build/kernel/components/drivers/src/pipe.o
 .rodata        0x0000000000000000       0x23 build/kernel/components/drivers/src/pipe.o
 .text.rt_wqueue_init
                0x0000000000000000       0x38 build/kernel/components/drivers/src/pipe.o
 .text.rt_pipe_open
                0x0000000000000000       0x58 build/kernel/components/drivers/src/pipe.o
 .text.rt_pipe_close
                0x0000000000000000       0x52 build/kernel/components/drivers/src/pipe.o
 .text.rt_pipe_read
                0x0000000000000000       0x94 build/kernel/components/drivers/src/pipe.o
 .text.rt_pipe_write
                0x0000000000000000       0x94 build/kernel/components/drivers/src/pipe.o
 .text.rt_pipe_control
                0x0000000000000000       0x18 build/kernel/components/drivers/src/pipe.o
 .text.rt_pipe_create
                0x0000000000000000       0xec build/kernel/components/drivers/src/pipe.o
 .text.rt_pipe_delete
                0x0000000000000000       0x7c build/kernel/components/drivers/src/pipe.o
 .rodata.__FUNCTION__.5609
                0x0000000000000000        0xf build/kernel/components/drivers/src/pipe.o
 .rodata.__FUNCTION__.5340
                0x0000000000000000        0xf build/kernel/components/drivers/src/pipe.o
 .debug_info    0x0000000000000000      0xbde build/kernel/components/drivers/src/pipe.o
 .debug_abbrev  0x0000000000000000      0x215 build/kernel/components/drivers/src/pipe.o
 .debug_loc     0x0000000000000000      0x2e8 build/kernel/components/drivers/src/pipe.o
 .debug_aranges
                0x0000000000000000       0x60 build/kernel/components/drivers/src/pipe.o
 .debug_ranges  0x0000000000000000       0x80 build/kernel/components/drivers/src/pipe.o
 .debug_line    0x0000000000000000      0x2c9 build/kernel/components/drivers/src/pipe.o
 .debug_str     0x0000000000000000      0x805 build/kernel/components/drivers/src/pipe.o
 .comment       0x0000000000000000       0x80 build/kernel/components/drivers/src/pipe.o
 .debug_frame   0x0000000000000000      0x15c build/kernel/components/drivers/src/pipe.o
 .ARM.attributes
                0x0000000000000000       0x33 build/kernel/components/drivers/src/pipe.o
 .text          0x0000000000000000        0x0 build/kernel/components/drivers/src/ringblk_buf.o
 .data          0x0000000000000000        0x0 build/kernel/components/drivers/src/ringblk_buf.o
 .bss           0x0000000000000000        0x0 build/kernel/components/drivers/src/ringblk_buf.o
 .text.rt_slist_init
                0x0000000000000000       0x18 build/kernel/components/drivers/src/ringblk_buf.o
 .text.rt_slist_append
                0x0000000000000000       0x34 build/kernel/components/drivers/src/ringblk_buf.o
 .text.rt_slist_len
                0x0000000000000000       0x32 build/kernel/components/drivers/src/ringblk_buf.o
 .text.rt_slist_remove
                0x0000000000000000       0x46 build/kernel/components/drivers/src/ringblk_buf.o
 .text.rt_slist_first
                0x0000000000000000       0x16 build/kernel/components/drivers/src/ringblk_buf.o
 .text.rt_slist_tail
                0x0000000000000000       0x24 build/kernel/components/drivers/src/ringblk_buf.o
 .text.rt_slist_next
                0x0000000000000000       0x16 build/kernel/components/drivers/src/ringblk_buf.o
 .text.rt_slist_isempty
                0x0000000000000000       0x20 build/kernel/components/drivers/src/ringblk_buf.o
 .rodata        0x0000000000000000       0x86 build/kernel/components/drivers/src/ringblk_buf.o
 .text.rt_rbb_init
                0x0000000000000000       0xa0 build/kernel/components/drivers/src/ringblk_buf.o
 .text.rt_rbb_create
                0x0000000000000000       0x7a build/kernel/components/drivers/src/ringblk_buf.o
 .text.rt_rbb_destroy
                0x0000000000000000       0x44 build/kernel/components/drivers/src/ringblk_buf.o
 .text.find_empty_blk_in_set
                0x0000000000000000       0x68 build/kernel/components/drivers/src/ringblk_buf.o
 .text.rt_rbb_blk_alloc
                0x0000000000000000      0x200 build/kernel/components/drivers/src/ringblk_buf.o
 .text.rt_rbb_blk_put
                0x0000000000000000       0x44 build/kernel/components/drivers/src/ringblk_buf.o
 .text.rt_rbb_blk_get
                0x0000000000000000       0x88 build/kernel/components/drivers/src/ringblk_buf.o
 .text.rt_rbb_blk_size
                0x0000000000000000       0x34 build/kernel/components/drivers/src/ringblk_buf.o
 .text.rt_rbb_blk_buf
                0x0000000000000000       0x30 build/kernel/components/drivers/src/ringblk_buf.o
 .text.rt_rbb_blk_free
                0x0000000000000000       0x80 build/kernel/components/drivers/src/ringblk_buf.o
 .text.rt_rbb_blk_queue_get
                0x0000000000000000      0x118 build/kernel/components/drivers/src/ringblk_buf.o
 .text.rt_rbb_blk_queue_len
                0x0000000000000000       0x64 build/kernel/components/drivers/src/ringblk_buf.o
 .text.rt_rbb_blk_queue_buf
                0x0000000000000000       0x30 build/kernel/components/drivers/src/ringblk_buf.o
 .text.rt_rbb_blk_queue_free
                0x0000000000000000       0x70 build/kernel/components/drivers/src/ringblk_buf.o
 .text.rt_rbb_next_blk_queue_len
                0x0000000000000000       0xb8 build/kernel/components/drivers/src/ringblk_buf.o
 .text.rt_rbb_get_buf_size
                0x0000000000000000       0x30 build/kernel/components/drivers/src/ringblk_buf.o
 .rodata.__FUNCTION__.5571
                0x0000000000000000        0xc build/kernel/components/drivers/src/ringblk_buf.o
 .rodata.__FUNCTION__.5585
                0x0000000000000000        0xf build/kernel/components/drivers/src/ringblk_buf.o
 .rodata.__FUNCTION__.5590
                0x0000000000000000       0x16 build/kernel/components/drivers/src/ringblk_buf.o
 .rodata.__FUNCTION__.5604
                0x0000000000000000       0x11 build/kernel/components/drivers/src/ringblk_buf.o
 .rodata.__FUNCTION__.5608
                0x0000000000000000        0xf build/kernel/components/drivers/src/ringblk_buf.o
 .rodata.__FUNCTION__.5615
                0x0000000000000000        0xf build/kernel/components/drivers/src/ringblk_buf.o
 .rodata.__FUNCTION__.5623
                0x0000000000000000       0x10 build/kernel/components/drivers/src/ringblk_buf.o
 .rodata.__FUNCTION__.5627
                0x0000000000000000        0xf build/kernel/components/drivers/src/ringblk_buf.o
 .rodata.__FUNCTION__.5633
                0x0000000000000000       0x10 build/kernel/components/drivers/src/ringblk_buf.o
 .rodata.__FUNCTION__.5644
                0x0000000000000000       0x15 build/kernel/components/drivers/src/ringblk_buf.o
 .rodata.__FUNCTION__.5654
                0x0000000000000000       0x15 build/kernel/components/drivers/src/ringblk_buf.o
 .rodata.__FUNCTION__.5661
                0x0000000000000000       0x15 build/kernel/components/drivers/src/ringblk_buf.o
 .rodata.__FUNCTION__.5667
                0x0000000000000000       0x16 build/kernel/components/drivers/src/ringblk_buf.o
 .rodata.__FUNCTION__.5679
                0x0000000000000000       0x1a build/kernel/components/drivers/src/ringblk_buf.o
 .rodata.__FUNCTION__.5687
                0x0000000000000000       0x14 build/kernel/components/drivers/src/ringblk_buf.o
 .debug_info    0x0000000000000000      0xade build/kernel/components/drivers/src/ringblk_buf.o
 .debug_abbrev  0x0000000000000000      0x27f build/kernel/components/drivers/src/ringblk_buf.o
 .debug_loc     0x0000000000000000      0x7e0 build/kernel/components/drivers/src/ringblk_buf.o
 .debug_aranges
                0x0000000000000000       0xd8 build/kernel/components/drivers/src/ringblk_buf.o
 .debug_ranges  0x0000000000000000       0xc8 build/kernel/components/drivers/src/ringblk_buf.o
 .debug_line    0x0000000000000000      0x518 build/kernel/components/drivers/src/ringblk_buf.o
 .debug_str     0x0000000000000000      0x567 build/kernel/components/drivers/src/ringblk_buf.o
 .comment       0x0000000000000000       0x80 build/kernel/components/drivers/src/ringblk_buf.o
 .debug_frame   0x0000000000000000      0x390 build/kernel/components/drivers/src/ringblk_buf.o
 .ARM.attributes
                0x0000000000000000       0x33 build/kernel/components/drivers/src/ringblk_buf.o
 .text          0x0000000000000000        0x0 build/kernel/components/drivers/src/ringbuffer.o
 .data          0x0000000000000000        0x0 build/kernel/components/drivers/src/ringbuffer.o
 .bss           0x0000000000000000        0x0 build/kernel/components/drivers/src/ringbuffer.o
 .text.rt_ringbuffer_status
                0x0000000000000000       0x4c build/kernel/components/drivers/src/ringbuffer.o
 .rodata        0x0000000000000000       0x19 build/kernel/components/drivers/src/ringbuffer.o
 .text.rt_ringbuffer_init
                0x0000000000000000       0xa0 build/kernel/components/drivers/src/ringbuffer.o
 .text.rt_ringbuffer_put
                0x0000000000000000      0x16c build/kernel/components/drivers/src/ringbuffer.o
 .text.rt_ringbuffer_put_force
                0x0000000000000000      0x1d0 build/kernel/components/drivers/src/ringbuffer.o
 .text.rt_ringbuffer_get
                0x0000000000000000      0x15c build/kernel/components/drivers/src/ringbuffer.o
 .text.rt_ringbuffer_putchar
                0x0000000000000000       0xb8 build/kernel/components/drivers/src/ringbuffer.o
 .text.rt_ringbuffer_putchar_force
                0x0000000000000000       0xfc build/kernel/components/drivers/src/ringbuffer.o
 .text.rt_ringbuffer_getchar
                0x0000000000000000       0xb4 build/kernel/components/drivers/src/ringbuffer.o
 .text.rt_ringbuffer_data_len
                0x0000000000000000       0x82 build/kernel/components/drivers/src/ringbuffer.o
 .text.rt_ringbuffer_reset
                0x0000000000000000       0x54 build/kernel/components/drivers/src/ringbuffer.o
 .text.rt_ringbuffer_create
                0x0000000000000000       0x74 build/kernel/components/drivers/src/ringbuffer.o
 .text.rt_ringbuffer_destroy
                0x0000000000000000       0x3c build/kernel/components/drivers/src/ringbuffer.o
 .rodata.__FUNCTION__.5586
                0x0000000000000000       0x13 build/kernel/components/drivers/src/ringbuffer.o
 .rodata.__FUNCTION__.5593
                0x0000000000000000       0x12 build/kernel/components/drivers/src/ringbuffer.o
 .rodata.__FUNCTION__.5600
                0x0000000000000000       0x18 build/kernel/components/drivers/src/ringbuffer.o
 .rodata.__FUNCTION__.5607
                0x0000000000000000       0x12 build/kernel/components/drivers/src/ringbuffer.o
 .rodata.__FUNCTION__.5612
                0x0000000000000000       0x16 build/kernel/components/drivers/src/ringbuffer.o
 .rodata.__FUNCTION__.5618
                0x0000000000000000       0x1c build/kernel/components/drivers/src/ringbuffer.o
 .rodata.__FUNCTION__.5623
                0x0000000000000000       0x16 build/kernel/components/drivers/src/ringbuffer.o
 .rodata.__FUNCTION__.5634
                0x0000000000000000       0x14 build/kernel/components/drivers/src/ringbuffer.o
 .rodata.__FUNCTION__.5640
                0x0000000000000000       0x15 build/kernel/components/drivers/src/ringbuffer.o
 .rodata.__FUNCTION__.5645
                0x0000000000000000       0x16 build/kernel/components/drivers/src/ringbuffer.o
 .debug_info    0x0000000000000000      0x62f build/kernel/components/drivers/src/ringbuffer.o
 .debug_abbrev  0x0000000000000000      0x1ec build/kernel/components/drivers/src/ringbuffer.o
 .debug_loc     0x0000000000000000      0x3cc build/kernel/components/drivers/src/ringbuffer.o
 .debug_aranges
                0x0000000000000000       0x78 build/kernel/components/drivers/src/ringbuffer.o
 .debug_ranges  0x0000000000000000       0x68 build/kernel/components/drivers/src/ringbuffer.o
 .debug_line    0x0000000000000000      0x2cf build/kernel/components/drivers/src/ringbuffer.o
 .debug_str     0x0000000000000000      0x41a build/kernel/components/drivers/src/ringbuffer.o
 .comment       0x0000000000000000       0x80 build/kernel/components/drivers/src/ringbuffer.o
 .debug_frame   0x0000000000000000      0x1d4 build/kernel/components/drivers/src/ringbuffer.o
 .ARM.attributes
                0x0000000000000000       0x33 build/kernel/components/drivers/src/ringbuffer.o
 .text          0x0000000000000000        0x0 build/kernel/components/drivers/src/waitqueue.o
 .data          0x0000000000000000        0x0 build/kernel/components/drivers/src/waitqueue.o
 .bss           0x0000000000000000        0x0 build/kernel/components/drivers/src/waitqueue.o
 .text.rt_list_init
                0x0000000000000000       0x20 build/kernel/components/drivers/src/waitqueue.o
 .text.rt_list_insert_before
                0x0000000000000000       0x30 build/kernel/components/drivers/src/waitqueue.o
 .text.rt_list_remove
                0x0000000000000000       0x34 build/kernel/components/drivers/src/waitqueue.o
 .text.rt_list_isempty
                0x0000000000000000       0x22 build/kernel/components/drivers/src/waitqueue.o
 .text.rt_wqueue_add
                0x0000000000000000       0x2e build/kernel/components/drivers/src/waitqueue.o
 .text.rt_wqueue_remove
                0x0000000000000000       0x26 build/kernel/components/drivers/src/waitqueue.o
 .text.__wqueue_default_wake
                0x0000000000000000       0x16 build/kernel/components/drivers/src/waitqueue.o
 .text.rt_wqueue_wakeup
                0x0000000000000000       0x80 build/kernel/components/drivers/src/waitqueue.o
 .rodata        0x0000000000000000       0x2a build/kernel/components/drivers/src/waitqueue.o
 .text.rt_wqueue_wait
                0x0000000000000000       0xf8 build/kernel/components/drivers/src/waitqueue.o
 .rodata.__FUNCTION__.5599
                0x0000000000000000        0xf build/kernel/components/drivers/src/waitqueue.o
 .debug_info    0x0000000000000000      0x786 build/kernel/components/drivers/src/waitqueue.o
 .debug_abbrev  0x0000000000000000      0x208 build/kernel/components/drivers/src/waitqueue.o
 .debug_loc     0x0000000000000000      0x30e build/kernel/components/drivers/src/waitqueue.o
 .debug_aranges
                0x0000000000000000       0x60 build/kernel/components/drivers/src/waitqueue.o
 .debug_ranges  0x0000000000000000       0x50 build/kernel/components/drivers/src/waitqueue.o
 .debug_line    0x0000000000000000      0x23e build/kernel/components/drivers/src/waitqueue.o
 .debug_str     0x0000000000000000      0x4d7 build/kernel/components/drivers/src/waitqueue.o
 .comment       0x0000000000000000       0x80 build/kernel/components/drivers/src/waitqueue.o
 .debug_frame   0x0000000000000000      0x16c build/kernel/components/drivers/src/waitqueue.o
 .ARM.attributes
                0x0000000000000000       0x33 build/kernel/components/drivers/src/waitqueue.o
 .text          0x0000000000000000        0x0 build/kernel/components/drivers/src/workqueue.o
 .data          0x0000000000000000        0x0 build/kernel/components/drivers/src/workqueue.o
 .bss           0x0000000000000000        0x0 build/kernel/components/drivers/src/workqueue.o
 .text.rt_list_init
                0x0000000000000000       0x20 build/kernel/components/drivers/src/workqueue.o
 .text.rt_list_insert_after
                0x0000000000000000       0x30 build/kernel/components/drivers/src/workqueue.o
 .text.rt_list_remove
                0x0000000000000000       0x34 build/kernel/components/drivers/src/workqueue.o
 .text.rt_list_isempty
                0x0000000000000000       0x22 build/kernel/components/drivers/src/workqueue.o
 .text.rt_work_init
                0x0000000000000000       0x34 build/kernel/components/drivers/src/workqueue.o
 .text._workqueue_work_completion
                0x0000000000000000       0x4c build/kernel/components/drivers/src/workqueue.o
 .rodata        0x0000000000000000       0x34 build/kernel/components/drivers/src/workqueue.o
 .text._workqueue_thread_entry
                0x0000000000000000       0x98 build/kernel/components/drivers/src/workqueue.o
 .text._workqueue_submit_work
                0x0000000000000000       0x90 build/kernel/components/drivers/src/workqueue.o
 .text._workqueue_cancel_work
                0x0000000000000000       0x4c build/kernel/components/drivers/src/workqueue.o
 .text._workqueue_cancel_delayed_work
                0x0000000000000000       0xa4 build/kernel/components/drivers/src/workqueue.o
 .text._workqueue_submit_delayed_work
                0x0000000000000000       0xbc build/kernel/components/drivers/src/workqueue.o
 .text._delayed_work_timeout_handler
                0x0000000000000000       0x50 build/kernel/components/drivers/src/workqueue.o
 .text.rt_workqueue_create
                0x0000000000000000       0x8c build/kernel/components/drivers/src/workqueue.o
 .text.rt_workqueue_destroy
                0x0000000000000000       0x3c build/kernel/components/drivers/src/workqueue.o
 .text.rt_workqueue_dowork
                0x0000000000000000       0x4c build/kernel/components/drivers/src/workqueue.o
 .text.rt_workqueue_submit_work
                0x0000000000000000       0x68 build/kernel/components/drivers/src/workqueue.o
 .text.rt_workqueue_critical_work
                0x0000000000000000       0x9c build/kernel/components/drivers/src/workqueue.o
 .text.rt_workqueue_cancel_work
                0x0000000000000000       0x64 build/kernel/components/drivers/src/workqueue.o
 .text.rt_workqueue_cancel_work_sync
                0x0000000000000000       0x80 build/kernel/components/drivers/src/workqueue.o
 .text.rt_workqueue_cancel_all_work
                0x0000000000000000       0x54 build/kernel/components/drivers/src/workqueue.o
 .text.rt_delayed_work_init
                0x0000000000000000       0x26 build/kernel/components/drivers/src/workqueue.o
 .rodata.__FUNCTION__.5577
                0x0000000000000000       0x18 build/kernel/components/drivers/src/workqueue.o
 .rodata.__FUNCTION__.5617
                0x0000000000000000       0x15 build/kernel/components/drivers/src/workqueue.o
 .rodata.__FUNCTION__.5622
                0x0000000000000000       0x14 build/kernel/components/drivers/src/workqueue.o
 .rodata.__FUNCTION__.5628
                0x0000000000000000       0x19 build/kernel/components/drivers/src/workqueue.o
 .rodata.__FUNCTION__.5634
                0x0000000000000000       0x1b build/kernel/components/drivers/src/workqueue.o
 .rodata.__FUNCTION__.5639
                0x0000000000000000       0x19 build/kernel/components/drivers/src/workqueue.o
 .rodata.__FUNCTION__.5645
                0x0000000000000000       0x1e build/kernel/components/drivers/src/workqueue.o
 .rodata.__FUNCTION__.5651
                0x0000000000000000       0x1d build/kernel/components/drivers/src/workqueue.o
 .debug_info    0x0000000000000000      0xc4b build/kernel/components/drivers/src/workqueue.o
 .debug_abbrev  0x0000000000000000      0x25e build/kernel/components/drivers/src/workqueue.o
 .debug_loc     0x0000000000000000      0x6a8 build/kernel/components/drivers/src/workqueue.o
 .debug_aranges
                0x0000000000000000       0xc0 build/kernel/components/drivers/src/workqueue.o
 .debug_ranges  0x0000000000000000       0xb0 build/kernel/components/drivers/src/workqueue.o
 .debug_line    0x0000000000000000      0x3de build/kernel/components/drivers/src/workqueue.o
 .debug_str     0x0000000000000000      0x6a3 build/kernel/components/drivers/src/workqueue.o
 .comment       0x0000000000000000       0x80 build/kernel/components/drivers/src/workqueue.o
 .debug_frame   0x0000000000000000      0x314 build/kernel/components/drivers/src/workqueue.o
 .ARM.attributes
                0x0000000000000000       0x33 build/kernel/components/drivers/src/workqueue.o
 .text          0x0000000000000000        0x0 build/kernel/components/finsh/shell.o
 .data          0x0000000000000000        0x0 build/kernel/components/finsh/shell.o
 .bss           0x0000000000000000        0x0 build/kernel/components/finsh/shell.o
 .text.finsh_set_prompt
                0x0000000000000000       0x60 build/kernel/components/finsh/shell.o
 .text.finsh_get_prompt_mode
                0x0000000000000000       0x34 build/kernel/components/finsh/shell.o
 .text.finsh_get_device
                0x0000000000000000       0x30 build/kernel/components/finsh/shell.o
 .text.finsh_set_echo
                0x0000000000000000       0x48 build/kernel/components/finsh/shell.o
 .text.finsh_get_echo
                0x0000000000000000       0x34 build/kernel/components/finsh/shell.o
 .rodata.__FUNCTION__.5459
                0x0000000000000000       0x16 build/kernel/components/finsh/shell.o
 .rodata.__FUNCTION__.5484
                0x0000000000000000       0x11 build/kernel/components/finsh/shell.o
 .rodata.__FUNCTION__.5488
                0x0000000000000000        0xf build/kernel/components/finsh/shell.o
 .rodata.__FUNCTION__.5491
                0x0000000000000000        0xf build/kernel/components/finsh/shell.o
 .text          0x0000000000000000        0x0 build/kernel/components/finsh/symbol.o
 .data          0x0000000000000000        0x0 build/kernel/components/finsh/symbol.o
 .bss           0x0000000000000000        0x0 build/kernel/components/finsh/symbol.o
 .text          0x0000000000000000        0x0 build/kernel/components/finsh/cmd.o
 .data          0x0000000000000000        0x0 build/kernel/components/finsh/cmd.o
 .bss           0x0000000000000000        0x0 build/kernel/components/finsh/cmd.o
 .text          0x0000000000000000        0x0 build/kernel/components/finsh/msh.o
 .data          0x0000000000000000        0x0 build/kernel/components/finsh/msh.o
 .bss           0x0000000000000000        0x0 build/kernel/components/finsh/msh.o
 .text          0x0000000000000000        0x0 build/kernel/components/finsh/msh_cmd.o
 .data          0x0000000000000000        0x0 build/kernel/components/finsh/msh_cmd.o
 .bss           0x0000000000000000        0x0 build/kernel/components/finsh/msh_cmd.o
 .text          0x0000000000000000        0x0 build/kernel/components/finsh/msh_file.o
 .data          0x0000000000000000        0x0 build/kernel/components/finsh/msh_file.o
 .bss           0x0000000000000000        0x0 build/kernel/components/finsh/msh_file.o
 .debug_info    0x0000000000000000      0x124 build/kernel/components/finsh/msh_file.o
 .debug_abbrev  0x0000000000000000       0x9c build/kernel/components/finsh/msh_file.o
 .debug_aranges
                0x0000000000000000       0x18 build/kernel/components/finsh/msh_file.o
 .debug_line    0x0000000000000000       0x98 build/kernel/components/finsh/msh_file.o
 .debug_str     0x0000000000000000      0x20d build/kernel/components/finsh/msh_file.o
 .comment       0x0000000000000000       0x80 build/kernel/components/finsh/msh_file.o
 .ARM.attributes
                0x0000000000000000       0x33 build/kernel/components/finsh/msh_file.o
 .text          0x0000000000000000        0x0 build/kernel/components/libc/compilers/minilibc/ctype.o
 .data          0x0000000000000000        0x0 build/kernel/components/libc/compilers/minilibc/ctype.o
 .bss           0x0000000000000000        0x0 build/kernel/components/libc/compilers/minilibc/ctype.o
 .text.isprint  0x0000000000000000       0x2c build/kernel/components/libc/compilers/minilibc/ctype.o
 .text.isalpha  0x0000000000000000       0x24 build/kernel/components/libc/compilers/minilibc/ctype.o
 .text.isdigit  0x0000000000000000       0x20 build/kernel/components/libc/compilers/minilibc/ctype.o
 .text.isspace  0x0000000000000000       0x26 build/kernel/components/libc/compilers/minilibc/ctype.o
 .debug_info    0x0000000000000000      0x1dc build/kernel/components/libc/compilers/minilibc/ctype.o
 .debug_abbrev  0x0000000000000000       0xe7 build/kernel/components/libc/compilers/minilibc/ctype.o
 .debug_loc     0x0000000000000000      0x170 build/kernel/components/libc/compilers/minilibc/ctype.o
 .debug_aranges
                0x0000000000000000       0x38 build/kernel/components/libc/compilers/minilibc/ctype.o
 .debug_ranges  0x0000000000000000       0x28 build/kernel/components/libc/compilers/minilibc/ctype.o
 .debug_line    0x0000000000000000      0x13f build/kernel/components/libc/compilers/minilibc/ctype.o
 .debug_str     0x0000000000000000      0x23c build/kernel/components/libc/compilers/minilibc/ctype.o
 .comment       0x0000000000000000       0x80 build/kernel/components/libc/compilers/minilibc/ctype.o
 .debug_frame   0x0000000000000000       0xb0 build/kernel/components/libc/compilers/minilibc/ctype.o
 .ARM.attributes
                0x0000000000000000       0x33 build/kernel/components/libc/compilers/minilibc/ctype.o
 .text          0x0000000000000000        0x0 build/kernel/components/libc/compilers/minilibc/math.o
 .data          0x0000000000000000        0x0 build/kernel/components/libc/compilers/minilibc/math.o
 .bss           0x0000000000000000        0x0 build/kernel/components/libc/compilers/minilibc/math.o
 .data.cos_off_tbl
                0x0000000000000000       0x20 build/kernel/components/libc/compilers/minilibc/math.o
 .data.cos_sign_tbl
                0x0000000000000000       0x20 build/kernel/components/libc/compilers/minilibc/math.o
 .data.sin_off_tbl
                0x0000000000000000       0x20 build/kernel/components/libc/compilers/minilibc/math.o
 .data.sin_sign_tbl
                0x0000000000000000       0x20 build/kernel/components/libc/compilers/minilibc/math.o
 .text.sin      0x0000000000000000      0x2c0 build/kernel/components/libc/compilers/minilibc/math.o
 .text.cos      0x0000000000000000      0x2b8 build/kernel/components/libc/compilers/minilibc/math.o
 .debug_info    0x0000000000000000      0x137 build/kernel/components/libc/compilers/minilibc/math.o
 .debug_abbrev  0x0000000000000000       0xa1 build/kernel/components/libc/compilers/minilibc/math.o
 .debug_loc     0x0000000000000000       0xa0 build/kernel/components/libc/compilers/minilibc/math.o
 .debug_aranges
                0x0000000000000000       0x28 build/kernel/components/libc/compilers/minilibc/math.o
 .debug_ranges  0x0000000000000000       0x18 build/kernel/components/libc/compilers/minilibc/math.o
 .debug_line    0x0000000000000000       0xc4 build/kernel/components/libc/compilers/minilibc/math.o
 .debug_str     0x0000000000000000      0x172 build/kernel/components/libc/compilers/minilibc/math.o
 .comment       0x0000000000000000       0x80 build/kernel/components/libc/compilers/minilibc/math.o
 .debug_frame   0x0000000000000000       0x60 build/kernel/components/libc/compilers/minilibc/math.o
 .ARM.attributes
                0x0000000000000000       0x33 build/kernel/components/libc/compilers/minilibc/math.o
 .text          0x0000000000000000        0x0 build/kernel/components/libc/compilers/minilibc/qsort.o
 .data          0x0000000000000000        0x0 build/kernel/components/libc/compilers/minilibc/qsort.o
 .bss           0x0000000000000000        0x0 build/kernel/components/libc/compilers/minilibc/qsort.o
 .text.exch     0x0000000000000000       0x62 build/kernel/components/libc/compilers/minilibc/qsort.o
 .text.quicksort
                0x0000000000000000      0x190 build/kernel/components/libc/compilers/minilibc/qsort.o
 .text.qsort    0x0000000000000000       0x48 build/kernel/components/libc/compilers/minilibc/qsort.o
 .debug_info    0x0000000000000000      0x20a build/kernel/components/libc/compilers/minilibc/qsort.o
 .debug_abbrev  0x0000000000000000       0xde build/kernel/components/libc/compilers/minilibc/qsort.o
 .debug_loc     0x0000000000000000       0xfc build/kernel/components/libc/compilers/minilibc/qsort.o
 .debug_aranges
                0x0000000000000000       0x30 build/kernel/components/libc/compilers/minilibc/qsort.o
 .debug_ranges  0x0000000000000000       0x20 build/kernel/components/libc/compilers/minilibc/qsort.o
 .debug_line    0x0000000000000000      0x152 build/kernel/components/libc/compilers/minilibc/qsort.o
 .debug_str     0x0000000000000000      0x1a6 build/kernel/components/libc/compilers/minilibc/qsort.o
 .comment       0x0000000000000000       0x80 build/kernel/components/libc/compilers/minilibc/qsort.o
 .debug_frame   0x0000000000000000       0x84 build/kernel/components/libc/compilers/minilibc/qsort.o
 .ARM.attributes
                0x0000000000000000       0x33 build/kernel/components/libc/compilers/minilibc/qsort.o
 .text          0x0000000000000000        0x0 build/kernel/components/libc/compilers/minilibc/rand.o
 .data          0x0000000000000000        0x0 build/kernel/components/libc/compilers/minilibc/rand.o
 .bss           0x0000000000000000        0x0 build/kernel/components/libc/compilers/minilibc/rand.o
 .data._seed    0x0000000000000000        0x4 build/kernel/components/libc/compilers/minilibc/rand.o
 .text.rand_r   0x0000000000000000       0x70 build/kernel/components/libc/compilers/minilibc/rand.o
 .text.rand     0x0000000000000000       0x14 build/kernel/components/libc/compilers/minilibc/rand.o
 .text.srand    0x0000000000000000       0x1c build/kernel/components/libc/compilers/minilibc/rand.o
 .debug_info    0x0000000000000000      0x10c build/kernel/components/libc/compilers/minilibc/rand.o
 .debug_abbrev  0x0000000000000000       0xce build/kernel/components/libc/compilers/minilibc/rand.o
 .debug_loc     0x0000000000000000       0xe4 build/kernel/components/libc/compilers/minilibc/rand.o
 .debug_aranges
                0x0000000000000000       0x30 build/kernel/components/libc/compilers/minilibc/rand.o
 .debug_ranges  0x0000000000000000       0x20 build/kernel/components/libc/compilers/minilibc/rand.o
 .debug_line    0x0000000000000000       0xac build/kernel/components/libc/compilers/minilibc/rand.o
 .debug_str     0x0000000000000000      0x1c5 build/kernel/components/libc/compilers/minilibc/rand.o
 .comment       0x0000000000000000       0x80 build/kernel/components/libc/compilers/minilibc/rand.o
 .debug_frame   0x0000000000000000       0x7c build/kernel/components/libc/compilers/minilibc/rand.o
 .ARM.attributes
                0x0000000000000000       0x33 build/kernel/components/libc/compilers/minilibc/rand.o
 .text          0x0000000000000000        0x0 build/kernel/components/libc/compilers/minilibc/stdlib.o
 .data          0x0000000000000000        0x0 build/kernel/components/libc/compilers/minilibc/stdlib.o
 .bss           0x0000000000000000        0x0 build/kernel/components/libc/compilers/minilibc/stdlib.o
 .text.atoi     0x0000000000000000       0x84 build/kernel/components/libc/compilers/minilibc/stdlib.o
 .text.atol     0x0000000000000000       0x82 build/kernel/components/libc/compilers/minilibc/stdlib.o
 .text.free     0x0000000000000000       0x16 build/kernel/components/libc/compilers/minilibc/stdlib.o
 .text.realloc  0x0000000000000000       0x1c build/kernel/components/libc/compilers/minilibc/stdlib.o
 .text.calloc   0x0000000000000000       0x1c build/kernel/components/libc/compilers/minilibc/stdlib.o
 .text          0x0000000000000000        0x0 build/kernel/components/libc/compilers/minilibc/string.o
 .data          0x0000000000000000        0x0 build/kernel/components/libc/compilers/minilibc/string.o
 .bss           0x0000000000000000        0x0 build/kernel/components/libc/compilers/minilibc/string.o
 .text.strcpy   0x0000000000000000       0x28 build/kernel/components/libc/compilers/minilibc/string.o
 .text.strlcpy  0x0000000000000000       0x64 build/kernel/components/libc/compilers/minilibc/string.o
 .text.strcmp   0x0000000000000000       0x42 build/kernel/components/libc/compilers/minilibc/string.o
 .text.strcat   0x0000000000000000       0x42 build/kernel/components/libc/compilers/minilibc/string.o
 .text.strncat  0x0000000000000000       0x5e build/kernel/components/libc/compilers/minilibc/string.o
 .text.strrchr  0x0000000000000000       0x38 build/kernel/components/libc/compilers/minilibc/string.o
 .text.strncasecmp
                0x0000000000000000       0x62 build/kernel/components/libc/compilers/minilibc/string.o
 .text.skip_atoi
                0x0000000000000000       0x40 build/kernel/components/libc/compilers/minilibc/string.o
 .data._ctype   0x0000000000000000      0x100 build/kernel/components/libc/compilers/minilibc/string.o
 .text.__tolower
                0x0000000000000000       0x30 build/kernel/components/libc/compilers/minilibc/string.o
 .text.__toupper
                0x0000000000000000       0x30 build/kernel/components/libc/compilers/minilibc/string.o
 .text.tolower  0x0000000000000000       0x1c build/kernel/components/libc/compilers/minilibc/string.o
 .text.toupper  0x0000000000000000       0x1c build/kernel/components/libc/compilers/minilibc/string.o
 .text.simple_strtoul
                0x0000000000000000       0xf0 build/kernel/components/libc/compilers/minilibc/string.o
 .text.simple_strtol
                0x0000000000000000       0x3c build/kernel/components/libc/compilers/minilibc/string.o
 .text.simple_strtoull
                0x0000000000000000      0x128 build/kernel/components/libc/compilers/minilibc/string.o
 .text.simple_strtoll
                0x0000000000000000       0x46 build/kernel/components/libc/compilers/minilibc/string.o
 .text.vsscanf  0x0000000000000000      0x5f8 build/kernel/components/libc/compilers/minilibc/string.o
 .text.sscanf   0x0000000000000000       0x2c build/kernel/components/libc/compilers/minilibc/string.o
 .text.strspn   0x0000000000000000       0x7a build/kernel/components/libc/compilers/minilibc/string.o
 .text.strcspn  0x0000000000000000       0x76 build/kernel/components/libc/compilers/minilibc/string.o
 .text.strtok_r
                0x0000000000000000       0x6a build/kernel/components/libc/compilers/minilibc/string.o
 .text.strtok   0x0000000000000000       0x24 build/kernel/components/libc/compilers/minilibc/string.o
 .text.strchr   0x0000000000000000       0x46 build/kernel/components/libc/compilers/minilibc/string.o
 .text.strtol   0x0000000000000000       0x22 build/kernel/components/libc/compilers/minilibc/string.o
 .text.strtoll  0x0000000000000000       0x26 build/kernel/components/libc/compilers/minilibc/string.o
 .bss.strtok_pos.5436
                0x0000000000000000        0x4 build/kernel/components/libc/compilers/minilibc/string.o
 .text          0x0000000000000000        0x0 build/kernel/components/libc/compilers/minilibc/time.o
 .data          0x0000000000000000        0x0 build/kernel/components/libc/compilers/minilibc/time.o
 .bss           0x0000000000000000        0x0 build/kernel/components/libc/compilers/minilibc/time.o
 .rodata.__spm  0x0000000000000000       0x1a build/kernel/components/libc/compilers/minilibc/time.o
 .bss.timezone  0x0000000000000000        0x4 build/kernel/components/libc/compilers/minilibc/time.o
 .rodata.days   0x0000000000000000       0x1d build/kernel/components/libc/compilers/minilibc/time.o
 .rodata.months
                0x0000000000000000       0x31 build/kernel/components/libc/compilers/minilibc/time.o
 .text.__isleap
                0x0000000000000000       0x5c build/kernel/components/libc/compilers/minilibc/time.o
 .text.gmtime_r
                0x0000000000000000      0x160 build/kernel/components/libc/compilers/minilibc/time.o
 .text.localtime_r
                0x0000000000000000       0x58 build/kernel/components/libc/compilers/minilibc/time.o
 .text.localtime
                0x0000000000000000       0x20 build/kernel/components/libc/compilers/minilibc/time.o
 .text.mktime   0x0000000000000000      0x264 build/kernel/components/libc/compilers/minilibc/time.o
 .text.num2str  0x0000000000000000       0x54 build/kernel/components/libc/compilers/minilibc/time.o
 .text.asctime_r
                0x0000000000000000      0x110 build/kernel/components/libc/compilers/minilibc/time.o
 .text.asctime  0x0000000000000000       0x20 build/kernel/components/libc/compilers/minilibc/time.o
 .text.ctime    0x0000000000000000       0x20 build/kernel/components/libc/compilers/minilibc/time.o
 .rodata        0x0000000000000000       0x16 build/kernel/components/libc/compilers/minilibc/time.o
 .text.gettimeofday
                0x0000000000000000       0x58 build/kernel/components/libc/compilers/minilibc/time.o
 .text._gettimeofday
                0x0000000000000000       0x22 build/kernel/components/libc/compilers/minilibc/time.o
 .text.time     0x0000000000000000       0x24 build/kernel/components/libc/compilers/minilibc/time.o
 .text.clock    0x0000000000000000        0xe build/kernel/components/libc/compilers/minilibc/time.o
 .bss.tmp.5130  0x0000000000000000       0x2c build/kernel/components/libc/compilers/minilibc/time.o
 .bss.buf.5151  0x0000000000000000       0x19 build/kernel/components/libc/compilers/minilibc/time.o
 .rodata.__FUNCTION__.5161
                0x0000000000000000        0xd build/kernel/components/libc/compilers/minilibc/time.o
 .debug_info    0x0000000000000000      0x994 build/kernel/components/libc/compilers/minilibc/time.o
 .debug_abbrev  0x0000000000000000      0x206 build/kernel/components/libc/compilers/minilibc/time.o
 .debug_loc     0x0000000000000000      0x41c build/kernel/components/libc/compilers/minilibc/time.o
 .debug_aranges
                0x0000000000000000       0x80 build/kernel/components/libc/compilers/minilibc/time.o
 .debug_ranges  0x0000000000000000       0x88 build/kernel/components/libc/compilers/minilibc/time.o
 .debug_line    0x0000000000000000      0x2df build/kernel/components/libc/compilers/minilibc/time.o
 .debug_str     0x0000000000000000      0x679 build/kernel/components/libc/compilers/minilibc/time.o
 .comment       0x0000000000000000       0x80 build/kernel/components/libc/compilers/minilibc/time.o
 .debug_frame   0x0000000000000000      0x1f8 build/kernel/components/libc/compilers/minilibc/time.o
 .ARM.attributes
                0x0000000000000000       0x33 build/kernel/components/libc/compilers/minilibc/time.o
 .text          0x0000000000000000        0x0 /home/ldq/rk-linux/rt-thread/bsp/stm32/libraries/STM32F1xx_HAL/CMSIS/Device/ST/STM32F1xx/Source/Templates/system_stm32f1xx.o
 .data          0x0000000000000000        0x0 /home/ldq/rk-linux/rt-thread/bsp/stm32/libraries/STM32F1xx_HAL/CMSIS/Device/ST/STM32F1xx/Source/Templates/system_stm32f1xx.o
 .bss           0x0000000000000000        0x0 /home/ldq/rk-linux/rt-thread/bsp/stm32/libraries/STM32F1xx_HAL/CMSIS/Device/ST/STM32F1xx/Source/Templates/system_stm32f1xx.o
 .text.SystemCoreClockUpdate
                0x0000000000000000       0xd8 /home/ldq/rk-linux/rt-thread/bsp/stm32/libraries/STM32F1xx_HAL/CMSIS/Device/ST/STM32F1xx/Source/Templates/system_stm32f1xx.o
 .text          0x0000000000000000        0x0 /home/ldq/rk-linux/rt-thread/bsp/stm32/libraries/STM32F1xx_HAL/STM32F1xx_HAL_Driver/Src/stm32f1xx_hal_dma.o
 .data          0x0000000000000000        0x0 /home/ldq/rk-linux/rt-thread/bsp/stm32/libraries/STM32F1xx_HAL/STM32F1xx_HAL_Driver/Src/stm32f1xx_hal_dma.o
 .bss           0x0000000000000000        0x0 /home/ldq/rk-linux/rt-thread/bsp/stm32/libraries/STM32F1xx_HAL/STM32F1xx_HAL_Driver/Src/stm32f1xx_hal_dma.o
 .text.HAL_DMA_Start
                0x0000000000000000       0x84 /home/ldq/rk-linux/rt-thread/bsp/stm32/libraries/STM32F1xx_HAL/STM32F1xx_HAL_Driver/Src/stm32f1xx_hal_dma.o
 .text.HAL_DMA_Abort
                0x0000000000000000       0x58 /home/ldq/rk-linux/rt-thread/bsp/stm32/libraries/STM32F1xx_HAL/STM32F1xx_HAL_Driver/Src/stm32f1xx_hal_dma.o
 .text.HAL_DMA_PollForTransfer
                0x0000000000000000      0x77c /home/ldq/rk-linux/rt-thread/bsp/stm32/libraries/STM32F1xx_HAL/STM32F1xx_HAL_Driver/Src/stm32f1xx_hal_dma.o
 .text.HAL_DMA_RegisterCallback
                0x0000000000000000       0x90 /home/ldq/rk-linux/rt-thread/bsp/stm32/libraries/STM32F1xx_HAL/STM32F1xx_HAL_Driver/Src/stm32f1xx_hal_dma.o
 .text.HAL_DMA_UnRegisterCallback
                0x0000000000000000       0xac /home/ldq/rk-linux/rt-thread/bsp/stm32/libraries/STM32F1xx_HAL/STM32F1xx_HAL_Driver/Src/stm32f1xx_hal_dma.o
 .text.HAL_DMA_GetState
                0x0000000000000000       0x18 /home/ldq/rk-linux/rt-thread/bsp/stm32/libraries/STM32F1xx_HAL/STM32F1xx_HAL_Driver/Src/stm32f1xx_hal_dma.o
 .text.HAL_DMA_GetError
                0x0000000000000000       0x16 /home/ldq/rk-linux/rt-thread/bsp/stm32/libraries/STM32F1xx_HAL/STM32F1xx_HAL_Driver/Src/stm32f1xx_hal_dma.o
 .text          0x0000000000000000        0x0 /home/ldq/rk-linux/rt-thread/bsp/stm32/libraries/STM32F1xx_HAL/STM32F1xx_HAL_Driver/Src/stm32f1xx_hal_cortex.o
 .data          0x0000000000000000        0x0 /home/ldq/rk-linux/rt-thread/bsp/stm32/libraries/STM32F1xx_HAL/STM32F1xx_HAL_Driver/Src/stm32f1xx_hal_cortex.o
 .bss           0x0000000000000000        0x0 /home/ldq/rk-linux/rt-thread/bsp/stm32/libraries/STM32F1xx_HAL/STM32F1xx_HAL_Driver/Src/stm32f1xx_hal_cortex.o
 .text.NVIC_GetPendingIRQ
                0x0000000000000000       0x34 /home/ldq/rk-linux/rt-thread/bsp/stm32/libraries/STM32F1xx_HAL/STM32F1xx_HAL_Driver/Src/stm32f1xx_hal_cortex.o
 .text.NVIC_SetPendingIRQ
                0x0000000000000000       0x34 /home/ldq/rk-linux/rt-thread/bsp/stm32/libraries/STM32F1xx_HAL/STM32F1xx_HAL_Driver/Src/stm32f1xx_hal_cortex.o
 .text.NVIC_ClearPendingIRQ
                0x0000000000000000       0x34 /home/ldq/rk-linux/rt-thread/bsp/stm32/libraries/STM32F1xx_HAL/STM32F1xx_HAL_Driver/Src/stm32f1xx_hal_cortex.o
 .text.NVIC_GetActive
                0x0000000000000000       0x34 /home/ldq/rk-linux/rt-thread/bsp/stm32/libraries/STM32F1xx_HAL/STM32F1xx_HAL_Driver/Src/stm32f1xx_hal_cortex.o
 .text.NVIC_GetPriority
                0x0000000000000000       0x4c /home/ldq/rk-linux/rt-thread/bsp/stm32/libraries/STM32F1xx_HAL/STM32F1xx_HAL_Driver/Src/stm32f1xx_hal_cortex.o
 .text.NVIC_DecodePriority
                0x0000000000000000       0x6c /home/ldq/rk-linux/rt-thread/bsp/stm32/libraries/STM32F1xx_HAL/STM32F1xx_HAL_Driver/Src/stm32f1xx_hal_cortex.o
 .text.NVIC_SystemReset
                0x0000000000000000       0x28 /home/ldq/rk-linux/rt-thread/bsp/stm32/libraries/STM32F1xx_HAL/STM32F1xx_HAL_Driver/Src/stm32f1xx_hal_cortex.o
 .text.HAL_NVIC_SystemReset
                0x0000000000000000        0xc /home/ldq/rk-linux/rt-thread/bsp/stm32/libraries/STM32F1xx_HAL/STM32F1xx_HAL_Driver/Src/stm32f1xx_hal_cortex.o
 .text.HAL_NVIC_GetPriorityGrouping
                0x0000000000000000        0xe /home/ldq/rk-linux/rt-thread/bsp/stm32/libraries/STM32F1xx_HAL/STM32F1xx_HAL_Driver/Src/stm32f1xx_hal_cortex.o
 .text.HAL_NVIC_GetPriority
                0x0000000000000000       0x2c /home/ldq/rk-linux/rt-thread/bsp/stm32/libraries/STM32F1xx_HAL/STM32F1xx_HAL_Driver/Src/stm32f1xx_hal_cortex.o
 .text.HAL_NVIC_SetPendingIRQ
                0x0000000000000000       0x1c /home/ldq/rk-linux/rt-thread/bsp/stm32/libraries/STM32F1xx_HAL/STM32F1xx_HAL_Driver/Src/stm32f1xx_hal_cortex.o
 .text.HAL_NVIC_GetPendingIRQ
                0x0000000000000000       0x1e /home/ldq/rk-linux/rt-thread/bsp/stm32/libraries/STM32F1xx_HAL/STM32F1xx_HAL_Driver/Src/stm32f1xx_hal_cortex.o
 .text.HAL_NVIC_ClearPendingIRQ
                0x0000000000000000       0x1c /home/ldq/rk-linux/rt-thread/bsp/stm32/libraries/STM32F1xx_HAL/STM32F1xx_HAL_Driver/Src/stm32f1xx_hal_cortex.o
 .text.HAL_NVIC_GetActive
                0x0000000000000000       0x1e /home/ldq/rk-linux/rt-thread/bsp/stm32/libraries/STM32F1xx_HAL/STM32F1xx_HAL_Driver/Src/stm32f1xx_hal_cortex.o
 .text.HAL_SYSTICK_IRQHandler
                0x0000000000000000        0xc /home/ldq/rk-linux/rt-thread/bsp/stm32/libraries/STM32F1xx_HAL/STM32F1xx_HAL_Driver/Src/stm32f1xx_hal_cortex.o
 .text.HAL_SYSTICK_Callback
                0x0000000000000000        0xc /home/ldq/rk-linux/rt-thread/bsp/stm32/libraries/STM32F1xx_HAL/STM32F1xx_HAL_Driver/Src/stm32f1xx_hal_cortex.o
 .text          0x0000000000000000        0x0 /home/ldq/rk-linux/rt-thread/bsp/stm32/libraries/STM32F1xx_HAL/STM32F1xx_HAL_Driver/Src/stm32f1xx_hal_crc.o
 .data          0x0000000000000000        0x0 /home/ldq/rk-linux/rt-thread/bsp/stm32/libraries/STM32F1xx_HAL/STM32F1xx_HAL_Driver/Src/stm32f1xx_hal_crc.o
 .bss           0x0000000000000000        0x0 /home/ldq/rk-linux/rt-thread/bsp/stm32/libraries/STM32F1xx_HAL/STM32F1xx_HAL_Driver/Src/stm32f1xx_hal_crc.o
 .debug_info    0x0000000000000000      0x1f9 /home/ldq/rk-linux/rt-thread/bsp/stm32/libraries/STM32F1xx_HAL/STM32F1xx_HAL_Driver/Src/stm32f1xx_hal_crc.o
 .debug_abbrev  0x0000000000000000       0xcf /home/ldq/rk-linux/rt-thread/bsp/stm32/libraries/STM32F1xx_HAL/STM32F1xx_HAL_Driver/Src/stm32f1xx_hal_crc.o
 .debug_aranges
                0x0000000000000000       0x18 /home/ldq/rk-linux/rt-thread/bsp/stm32/libraries/STM32F1xx_HAL/STM32F1xx_HAL_Driver/Src/stm32f1xx_hal_crc.o
 .debug_line    0x0000000000000000      0x221 /home/ldq/rk-linux/rt-thread/bsp/stm32/libraries/STM32F1xx_HAL/STM32F1xx_HAL_Driver/Src/stm32f1xx_hal_crc.o
 .debug_str     0x0000000000000000      0x30c /home/ldq/rk-linux/rt-thread/bsp/stm32/libraries/STM32F1xx_HAL/STM32F1xx_HAL_Driver/Src/stm32f1xx_hal_crc.o
 .comment       0x0000000000000000       0x80 /home/ldq/rk-linux/rt-thread/bsp/stm32/libraries/STM32F1xx_HAL/STM32F1xx_HAL_Driver/Src/stm32f1xx_hal_crc.o
 .ARM.attributes
                0x0000000000000000       0x33 /home/ldq/rk-linux/rt-thread/bsp/stm32/libraries/STM32F1xx_HAL/STM32F1xx_HAL_Driver/Src/stm32f1xx_hal_crc.o
 .text          0x0000000000000000        0x0 /home/ldq/rk-linux/rt-thread/bsp/stm32/libraries/STM32F1xx_HAL/STM32F1xx_HAL_Driver/Src/stm32f1xx_hal_pwr.o
 .data          0x0000000000000000        0x0 /home/ldq/rk-linux/rt-thread/bsp/stm32/libraries/STM32F1xx_HAL/STM32F1xx_HAL_Driver/Src/stm32f1xx_hal_pwr.o
 .bss           0x0000000000000000        0x0 /home/ldq/rk-linux/rt-thread/bsp/stm32/libraries/STM32F1xx_HAL/STM32F1xx_HAL_Driver/Src/stm32f1xx_hal_pwr.o
 .text.PWR_OverloadWfe
                0x0000000000000000       0x10 /home/ldq/rk-linux/rt-thread/bsp/stm32/libraries/STM32F1xx_HAL/STM32F1xx_HAL_Driver/Src/stm32f1xx_hal_pwr.o
 .text.HAL_PWR_DeInit
                0x0000000000000000       0x28 /home/ldq/rk-linux/rt-thread/bsp/stm32/libraries/STM32F1xx_HAL/STM32F1xx_HAL_Driver/Src/stm32f1xx_hal_pwr.o
 .text.HAL_PWR_EnableBkUpAccess
                0x0000000000000000       0x18 /home/ldq/rk-linux/rt-thread/bsp/stm32/libraries/STM32F1xx_HAL/STM32F1xx_HAL_Driver/Src/stm32f1xx_hal_pwr.o
 .text.HAL_PWR_DisableBkUpAccess
                0x0000000000000000       0x18 /home/ldq/rk-linux/rt-thread/bsp/stm32/libraries/STM32F1xx_HAL/STM32F1xx_HAL_Driver/Src/stm32f1xx_hal_pwr.o
 .text.HAL_PWR_ConfigPVD
                0x0000000000000000       0xbc /home/ldq/rk-linux/rt-thread/bsp/stm32/libraries/STM32F1xx_HAL/STM32F1xx_HAL_Driver/Src/stm32f1xx_hal_pwr.o
 .text.HAL_PWR_EnablePVD
                0x0000000000000000       0x18 /home/ldq/rk-linux/rt-thread/bsp/stm32/libraries/STM32F1xx_HAL/STM32F1xx_HAL_Driver/Src/stm32f1xx_hal_pwr.o
 .text.HAL_PWR_DisablePVD
                0x0000000000000000       0x18 /home/ldq/rk-linux/rt-thread/bsp/stm32/libraries/STM32F1xx_HAL/STM32F1xx_HAL_Driver/Src/stm32f1xx_hal_pwr.o
 .text.HAL_PWR_EnableWakeUpPin
                0x0000000000000000       0x38 /home/ldq/rk-linux/rt-thread/bsp/stm32/libraries/STM32F1xx_HAL/STM32F1xx_HAL_Driver/Src/stm32f1xx_hal_pwr.o
 .text.HAL_PWR_DisableWakeUpPin
                0x0000000000000000       0x38 /home/ldq/rk-linux/rt-thread/bsp/stm32/libraries/STM32F1xx_HAL/STM32F1xx_HAL_Driver/Src/stm32f1xx_hal_pwr.o
 .text.HAL_PWR_EnterSLEEPMode
                0x0000000000000000       0x38 /home/ldq/rk-linux/rt-thread/bsp/stm32/libraries/STM32F1xx_HAL/STM32F1xx_HAL_Driver/Src/stm32f1xx_hal_pwr.o
 .text.HAL_PWR_EnterSTOPMode
                0x0000000000000000       0x64 /home/ldq/rk-linux/rt-thread/bsp/stm32/libraries/STM32F1xx_HAL/STM32F1xx_HAL_Driver/Src/stm32f1xx_hal_pwr.o
 .text.HAL_PWR_EnterSTANDBYMode
                0x0000000000000000       0x30 /home/ldq/rk-linux/rt-thread/bsp/stm32/libraries/STM32F1xx_HAL/STM32F1xx_HAL_Driver/Src/stm32f1xx_hal_pwr.o
 .text.HAL_PWR_EnableSleepOnExit
                0x0000000000000000       0x1c /home/ldq/rk-linux/rt-thread/bsp/stm32/libraries/STM32F1xx_HAL/STM32F1xx_HAL_Driver/Src/stm32f1xx_hal_pwr.o
 .text.HAL_PWR_DisableSleepOnExit
                0x0000000000000000       0x1c /home/ldq/rk-linux/rt-thread/bsp/stm32/libraries/STM32F1xx_HAL/STM32F1xx_HAL_Driver/Src/stm32f1xx_hal_pwr.o
 .text.HAL_PWR_EnableSEVOnPend
                0x0000000000000000       0x1c /home/ldq/rk-linux/rt-thread/bsp/stm32/libraries/STM32F1xx_HAL/STM32F1xx_HAL_Driver/Src/stm32f1xx_hal_pwr.o
 .text.HAL_PWR_DisableSEVOnPend
                0x0000000000000000       0x1c /home/ldq/rk-linux/rt-thread/bsp/stm32/libraries/STM32F1xx_HAL/STM32F1xx_HAL_Driver/Src/stm32f1xx_hal_pwr.o
 .text.HAL_PWR_PVD_IRQHandler
                0x0000000000000000       0x24 /home/ldq/rk-linux/rt-thread/bsp/stm32/libraries/STM32F1xx_HAL/STM32F1xx_HAL_Driver/Src/stm32f1xx_hal_pwr.o
 .text.HAL_PWR_PVDCallback
                0x0000000000000000        0xc /home/ldq/rk-linux/rt-thread/bsp/stm32/libraries/STM32F1xx_HAL/STM32F1xx_HAL_Driver/Src/stm32f1xx_hal_pwr.o
 .debug_info    0x0000000000000000      0x8bf /home/ldq/rk-linux/rt-thread/bsp/stm32/libraries/STM32F1xx_HAL/STM32F1xx_HAL_Driver/Src/stm32f1xx_hal_pwr.o
 .debug_abbrev  0x0000000000000000      0x239 /home/ldq/rk-linux/rt-thread/bsp/stm32/libraries/STM32F1xx_HAL/STM32F1xx_HAL_Driver/Src/stm32f1xx_hal_pwr.o
 .debug_loc     0x0000000000000000      0x51c /home/ldq/rk-linux/rt-thread/bsp/stm32/libraries/STM32F1xx_HAL/STM32F1xx_HAL_Driver/Src/stm32f1xx_hal_pwr.o
 .debug_aranges
                0x0000000000000000       0xa8 /home/ldq/rk-linux/rt-thread/bsp/stm32/libraries/STM32F1xx_HAL/STM32F1xx_HAL_Driver/Src/stm32f1xx_hal_pwr.o
 .debug_ranges  0x0000000000000000       0x98 /home/ldq/rk-linux/rt-thread/bsp/stm32/libraries/STM32F1xx_HAL/STM32F1xx_HAL_Driver/Src/stm32f1xx_hal_pwr.o
 .debug_line    0x0000000000000000      0x47f /home/ldq/rk-linux/rt-thread/bsp/stm32/libraries/STM32F1xx_HAL/STM32F1xx_HAL_Driver/Src/stm32f1xx_hal_pwr.o
 .debug_str     0x0000000000000000      0x5f0 /home/ldq/rk-linux/rt-thread/bsp/stm32/libraries/STM32F1xx_HAL/STM32F1xx_HAL_Driver/Src/stm32f1xx_hal_pwr.o
 .comment       0x0000000000000000       0x80 /home/ldq/rk-linux/rt-thread/bsp/stm32/libraries/STM32F1xx_HAL/STM32F1xx_HAL_Driver/Src/stm32f1xx_hal_pwr.o
 .debug_frame   0x0000000000000000      0x270 /home/ldq/rk-linux/rt-thread/bsp/stm32/libraries/STM32F1xx_HAL/STM32F1xx_HAL_Driver/Src/stm32f1xx_hal_pwr.o
 .ARM.attributes
                0x0000000000000000       0x33 /home/ldq/rk-linux/rt-thread/bsp/stm32/libraries/STM32F1xx_HAL/STM32F1xx_HAL_Driver/Src/stm32f1xx_hal_pwr.o
 .text          0x0000000000000000        0x0 /home/ldq/rk-linux/rt-thread/bsp/stm32/libraries/STM32F1xx_HAL/STM32F1xx_HAL_Driver/Src/stm32f1xx_hal_rcc.o
 .data          0x0000000000000000        0x0 /home/ldq/rk-linux/rt-thread/bsp/stm32/libraries/STM32F1xx_HAL/STM32F1xx_HAL_Driver/Src/stm32f1xx_hal_rcc.o
 .bss           0x0000000000000000        0x0 /home/ldq/rk-linux/rt-thread/bsp/stm32/libraries/STM32F1xx_HAL/STM32F1xx_HAL_Driver/Src/stm32f1xx_hal_rcc.o
 .text.HAL_RCC_DeInit
                0x0000000000000000      0x12c /home/ldq/rk-linux/rt-thread/bsp/stm32/libraries/STM32F1xx_HAL/STM32F1xx_HAL_Driver/Src/stm32f1xx_hal_rcc.o
 .text.HAL_RCC_MCOConfig
                0x0000000000000000       0x70 /home/ldq/rk-linux/rt-thread/bsp/stm32/libraries/STM32F1xx_HAL/STM32F1xx_HAL_Driver/Src/stm32f1xx_hal_rcc.o
 .text.HAL_RCC_EnableCSS
                0x0000000000000000       0x18 /home/ldq/rk-linux/rt-thread/bsp/stm32/libraries/STM32F1xx_HAL/STM32F1xx_HAL_Driver/Src/stm32f1xx_hal_rcc.o
 .text.HAL_RCC_DisableCSS
                0x0000000000000000       0x18 /home/ldq/rk-linux/rt-thread/bsp/stm32/libraries/STM32F1xx_HAL/STM32F1xx_HAL_Driver/Src/stm32f1xx_hal_rcc.o
 .text.HAL_RCC_GetOscConfig
                0x0000000000000000      0x104 /home/ldq/rk-linux/rt-thread/bsp/stm32/libraries/STM32F1xx_HAL/STM32F1xx_HAL_Driver/Src/stm32f1xx_hal_rcc.o
 .text.HAL_RCC_GetClockConfig
                0x0000000000000000       0x60 /home/ldq/rk-linux/rt-thread/bsp/stm32/libraries/STM32F1xx_HAL/STM32F1xx_HAL_Driver/Src/stm32f1xx_hal_rcc.o
 .text.HAL_RCC_NMI_IRQHandler
                0x0000000000000000       0x28 /home/ldq/rk-linux/rt-thread/bsp/stm32/libraries/STM32F1xx_HAL/STM32F1xx_HAL_Driver/Src/stm32f1xx_hal_rcc.o
 .text.HAL_RCC_CSSCallback
                0x0000000000000000        0xc /home/ldq/rk-linux/rt-thread/bsp/stm32/libraries/STM32F1xx_HAL/STM32F1xx_HAL_Driver/Src/stm32f1xx_hal_rcc.o
 .text          0x0000000000000000        0x0 /home/ldq/rk-linux/rt-thread/bsp/stm32/libraries/STM32F1xx_HAL/STM32F1xx_HAL_Driver/Src/stm32f1xx_hal_rcc_ex.o
 .data          0x0000000000000000        0x0 /home/ldq/rk-linux/rt-thread/bsp/stm32/libraries/STM32F1xx_HAL/STM32F1xx_HAL_Driver/Src/stm32f1xx_hal_rcc_ex.o
 .bss           0x0000000000000000        0x0 /home/ldq/rk-linux/rt-thread/bsp/stm32/libraries/STM32F1xx_HAL/STM32F1xx_HAL_Driver/Src/stm32f1xx_hal_rcc_ex.o
 .text.HAL_RCCEx_PeriphCLKConfig
                0x0000000000000000      0x16c /home/ldq/rk-linux/rt-thread/bsp/stm32/libraries/STM32F1xx_HAL/STM32F1xx_HAL_Driver/Src/stm32f1xx_hal_rcc_ex.o
 .text.HAL_RCCEx_GetPeriphCLKConfig
                0x0000000000000000       0x84 /home/ldq/rk-linux/rt-thread/bsp/stm32/libraries/STM32F1xx_HAL/STM32F1xx_HAL_Driver/Src/stm32f1xx_hal_rcc_ex.o
 .rodata        0x0000000000000000       0x12 /home/ldq/rk-linux/rt-thread/bsp/stm32/libraries/STM32F1xx_HAL/STM32F1xx_HAL_Driver/Src/stm32f1xx_hal_rcc_ex.o
 .text.HAL_RCCEx_GetPeriphCLKFreq
                0x0000000000000000      0x1d4 /home/ldq/rk-linux/rt-thread/bsp/stm32/libraries/STM32F1xx_HAL/STM32F1xx_HAL_Driver/Src/stm32f1xx_hal_rcc_ex.o
 .debug_info    0x0000000000000000      0x52a /home/ldq/rk-linux/rt-thread/bsp/stm32/libraries/STM32F1xx_HAL/STM32F1xx_HAL_Driver/Src/stm32f1xx_hal_rcc_ex.o
 .debug_abbrev  0x0000000000000000      0x1ab /home/ldq/rk-linux/rt-thread/bsp/stm32/libraries/STM32F1xx_HAL/STM32F1xx_HAL_Driver/Src/stm32f1xx_hal_rcc_ex.o
 .debug_loc     0x0000000000000000       0xfe /home/ldq/rk-linux/rt-thread/bsp/stm32/libraries/STM32F1xx_HAL/STM32F1xx_HAL_Driver/Src/stm32f1xx_hal_rcc_ex.o
 .debug_aranges
                0x0000000000000000       0x30 /home/ldq/rk-linux/rt-thread/bsp/stm32/libraries/STM32F1xx_HAL/STM32F1xx_HAL_Driver/Src/stm32f1xx_hal_rcc_ex.o
 .debug_ranges  0x0000000000000000       0x20 /home/ldq/rk-linux/rt-thread/bsp/stm32/libraries/STM32F1xx_HAL/STM32F1xx_HAL_Driver/Src/stm32f1xx_hal_rcc_ex.o
 .debug_line    0x0000000000000000      0x3a2 /home/ldq/rk-linux/rt-thread/bsp/stm32/libraries/STM32F1xx_HAL/STM32F1xx_HAL_Driver/Src/stm32f1xx_hal_rcc_ex.o
 .debug_str     0x0000000000000000      0x51b /home/ldq/rk-linux/rt-thread/bsp/stm32/libraries/STM32F1xx_HAL/STM32F1xx_HAL_Driver/Src/stm32f1xx_hal_rcc_ex.o
 .comment       0x0000000000000000       0x80 /home/ldq/rk-linux/rt-thread/bsp/stm32/libraries/STM32F1xx_HAL/STM32F1xx_HAL_Driver/Src/stm32f1xx_hal_rcc_ex.o
 .debug_frame   0x0000000000000000       0x84 /home/ldq/rk-linux/rt-thread/bsp/stm32/libraries/STM32F1xx_HAL/STM32F1xx_HAL_Driver/Src/stm32f1xx_hal_rcc_ex.o
 .ARM.attributes
                0x0000000000000000       0x33 /home/ldq/rk-linux/rt-thread/bsp/stm32/libraries/STM32F1xx_HAL/STM32F1xx_HAL_Driver/Src/stm32f1xx_hal_rcc_ex.o
 .text          0x0000000000000000        0x0 /home/ldq/rk-linux/rt-thread/bsp/stm32/libraries/STM32F1xx_HAL/STM32F1xx_HAL_Driver/Src/stm32f1xx_hal.o
 .data          0x0000000000000000        0x0 /home/ldq/rk-linux/rt-thread/bsp/stm32/libraries/STM32F1xx_HAL/STM32F1xx_HAL_Driver/Src/stm32f1xx_hal.o
 .bss           0x0000000000000000        0x0 /home/ldq/rk-linux/rt-thread/bsp/stm32/libraries/STM32F1xx_HAL/STM32F1xx_HAL_Driver/Src/stm32f1xx_hal.o
 .data.uwTickPrio
                0x0000000000000000        0x4 /home/ldq/rk-linux/rt-thread/bsp/stm32/libraries/STM32F1xx_HAL/STM32F1xx_HAL_Driver/Src/stm32f1xx_hal.o
 .text.HAL_DeInit
                0x0000000000000000       0x30 /home/ldq/rk-linux/rt-thread/bsp/stm32/libraries/STM32F1xx_HAL/STM32F1xx_HAL_Driver/Src/stm32f1xx_hal.o
 .text.HAL_MspInit
                0x0000000000000000        0xc /home/ldq/rk-linux/rt-thread/bsp/stm32/libraries/STM32F1xx_HAL/STM32F1xx_HAL_Driver/Src/stm32f1xx_hal.o
 .text.HAL_MspDeInit
                0x0000000000000000        0xc /home/ldq/rk-linux/rt-thread/bsp/stm32/libraries/STM32F1xx_HAL/STM32F1xx_HAL_Driver/Src/stm32f1xx_hal.o
 .text.HAL_InitTick
                0x0000000000000000       0x60 /home/ldq/rk-linux/rt-thread/bsp/stm32/libraries/STM32F1xx_HAL/STM32F1xx_HAL_Driver/Src/stm32f1xx_hal.o
 .text.HAL_GetTick
                0x0000000000000000       0x14 /home/ldq/rk-linux/rt-thread/bsp/stm32/libraries/STM32F1xx_HAL/STM32F1xx_HAL_Driver/Src/stm32f1xx_hal.o
 .text.HAL_GetTickPrio
                0x0000000000000000       0x14 /home/ldq/rk-linux/rt-thread/bsp/stm32/libraries/STM32F1xx_HAL/STM32F1xx_HAL_Driver/Src/stm32f1xx_hal.o
 .text.HAL_SetTickFreq
                0x0000000000000000       0x40 /home/ldq/rk-linux/rt-thread/bsp/stm32/libraries/STM32F1xx_HAL/STM32F1xx_HAL_Driver/Src/stm32f1xx_hal.o
 .text.HAL_GetTickFreq
                0x0000000000000000       0x14 /home/ldq/rk-linux/rt-thread/bsp/stm32/libraries/STM32F1xx_HAL/STM32F1xx_HAL_Driver/Src/stm32f1xx_hal.o
 .text.HAL_Delay
                0x0000000000000000       0x44 /home/ldq/rk-linux/rt-thread/bsp/stm32/libraries/STM32F1xx_HAL/STM32F1xx_HAL_Driver/Src/stm32f1xx_hal.o
 .text.HAL_SuspendTick
                0x0000000000000000       0x1c /home/ldq/rk-linux/rt-thread/bsp/stm32/libraries/STM32F1xx_HAL/STM32F1xx_HAL_Driver/Src/stm32f1xx_hal.o
 .text.HAL_ResumeTick
                0x0000000000000000       0x1c /home/ldq/rk-linux/rt-thread/bsp/stm32/libraries/STM32F1xx_HAL/STM32F1xx_HAL_Driver/Src/stm32f1xx_hal.o
 .text.HAL_GetHalVersion
                0x0000000000000000       0x14 /home/ldq/rk-linux/rt-thread/bsp/stm32/libraries/STM32F1xx_HAL/STM32F1xx_HAL_Driver/Src/stm32f1xx_hal.o
 .text.HAL_GetREVID
                0x0000000000000000       0x18 /home/ldq/rk-linux/rt-thread/bsp/stm32/libraries/STM32F1xx_HAL/STM32F1xx_HAL_Driver/Src/stm32f1xx_hal.o
 .text.HAL_GetDEVID
                0x0000000000000000       0x18 /home/ldq/rk-linux/rt-thread/bsp/stm32/libraries/STM32F1xx_HAL/STM32F1xx_HAL_Driver/Src/stm32f1xx_hal.o
 .text.HAL_DBGMCU_EnableDBGSleepMode
                0x0000000000000000       0x1c /home/ldq/rk-linux/rt-thread/bsp/stm32/libraries/STM32F1xx_HAL/STM32F1xx_HAL_Driver/Src/stm32f1xx_hal.o
 .text.HAL_DBGMCU_DisableDBGSleepMode
                0x0000000000000000       0x1c /home/ldq/rk-linux/rt-thread/bsp/stm32/libraries/STM32F1xx_HAL/STM32F1xx_HAL_Driver/Src/stm32f1xx_hal.o
 .text.HAL_DBGMCU_EnableDBGStopMode
                0x0000000000000000       0x1c /home/ldq/rk-linux/rt-thread/bsp/stm32/libraries/STM32F1xx_HAL/STM32F1xx_HAL_Driver/Src/stm32f1xx_hal.o
 .text.HAL_DBGMCU_DisableDBGStopMode
                0x0000000000000000       0x1c /home/ldq/rk-linux/rt-thread/bsp/stm32/libraries/STM32F1xx_HAL/STM32F1xx_HAL_Driver/Src/stm32f1xx_hal.o
 .text.HAL_DBGMCU_EnableDBGStandbyMode
                0x0000000000000000       0x1c /home/ldq/rk-linux/rt-thread/bsp/stm32/libraries/STM32F1xx_HAL/STM32F1xx_HAL_Driver/Src/stm32f1xx_hal.o
 .text.HAL_DBGMCU_DisableDBGStandbyMode
                0x0000000000000000       0x1c /home/ldq/rk-linux/rt-thread/bsp/stm32/libraries/STM32F1xx_HAL/STM32F1xx_HAL_Driver/Src/stm32f1xx_hal.o
 .text.HAL_GetUID
                0x0000000000000000       0x3c /home/ldq/rk-linux/rt-thread/bsp/stm32/libraries/STM32F1xx_HAL/STM32F1xx_HAL_Driver/Src/stm32f1xx_hal.o
 .text          0x0000000000000000        0x0 /home/ldq/rk-linux/rt-thread/bsp/stm32/libraries/STM32F1xx_HAL/STM32F1xx_HAL_Driver/Src/stm32f1xx_hal_cec.o
 .data          0x0000000000000000        0x0 /home/ldq/rk-linux/rt-thread/bsp/stm32/libraries/STM32F1xx_HAL/STM32F1xx_HAL_Driver/Src/stm32f1xx_hal_cec.o
 .bss           0x0000000000000000        0x0 /home/ldq/rk-linux/rt-thread/bsp/stm32/libraries/STM32F1xx_HAL/STM32F1xx_HAL_Driver/Src/stm32f1xx_hal_cec.o
 .debug_info    0x0000000000000000      0x1f9 /home/ldq/rk-linux/rt-thread/bsp/stm32/libraries/STM32F1xx_HAL/STM32F1xx_HAL_Driver/Src/stm32f1xx_hal_cec.o
 .debug_abbrev  0x0000000000000000       0xcf /home/ldq/rk-linux/rt-thread/bsp/stm32/libraries/STM32F1xx_HAL/STM32F1xx_HAL_Driver/Src/stm32f1xx_hal_cec.o
 .debug_aranges
                0x0000000000000000       0x18 /home/ldq/rk-linux/rt-thread/bsp/stm32/libraries/STM32F1xx_HAL/STM32F1xx_HAL_Driver/Src/stm32f1xx_hal_cec.o
 .debug_line    0x0000000000000000      0x221 /home/ldq/rk-linux/rt-thread/bsp/stm32/libraries/STM32F1xx_HAL/STM32F1xx_HAL_Driver/Src/stm32f1xx_hal_cec.o
 .debug_str     0x0000000000000000      0x30c /home/ldq/rk-linux/rt-thread/bsp/stm32/libraries/STM32F1xx_HAL/STM32F1xx_HAL_Driver/Src/stm32f1xx_hal_cec.o
 .comment       0x0000000000000000       0x80 /home/ldq/rk-linux/rt-thread/bsp/stm32/libraries/STM32F1xx_HAL/STM32F1xx_HAL_Driver/Src/stm32f1xx_hal_cec.o
 .ARM.attributes
                0x0000000000000000       0x33 /home/ldq/rk-linux/rt-thread/bsp/stm32/libraries/STM32F1xx_HAL/STM32F1xx_HAL_Driver/Src/stm32f1xx_hal_cec.o
 .text          0x0000000000000000        0x0 /home/ldq/rk-linux/rt-thread/bsp/stm32/libraries/STM32F1xx_HAL/STM32F1xx_HAL_Driver/Src/stm32f1xx_hal_sram.o
 .data          0x0000000000000000        0x0 /home/ldq/rk-linux/rt-thread/bsp/stm32/libraries/STM32F1xx_HAL/STM32F1xx_HAL_Driver/Src/stm32f1xx_hal_sram.o
 .bss           0x0000000000000000        0x0 /home/ldq/rk-linux/rt-thread/bsp/stm32/libraries/STM32F1xx_HAL/STM32F1xx_HAL_Driver/Src/stm32f1xx_hal_sram.o
 .debug_info    0x0000000000000000      0x1f9 /home/ldq/rk-linux/rt-thread/bsp/stm32/libraries/STM32F1xx_HAL/STM32F1xx_HAL_Driver/Src/stm32f1xx_hal_sram.o
 .debug_abbrev  0x0000000000000000       0xcf /home/ldq/rk-linux/rt-thread/bsp/stm32/libraries/STM32F1xx_HAL/STM32F1xx_HAL_Driver/Src/stm32f1xx_hal_sram.o
 .debug_aranges
                0x0000000000000000       0x18 /home/ldq/rk-linux/rt-thread/bsp/stm32/libraries/STM32F1xx_HAL/STM32F1xx_HAL_Driver/Src/stm32f1xx_hal_sram.o
 .debug_line    0x0000000000000000      0x221 /home/ldq/rk-linux/rt-thread/bsp/stm32/libraries/STM32F1xx_HAL/STM32F1xx_HAL_Driver/Src/stm32f1xx_hal_sram.o
 .debug_str     0x0000000000000000      0x30d /home/ldq/rk-linux/rt-thread/bsp/stm32/libraries/STM32F1xx_HAL/STM32F1xx_HAL_Driver/Src/stm32f1xx_hal_sram.o
 .comment       0x0000000000000000       0x80 /home/ldq/rk-linux/rt-thread/bsp/stm32/libraries/STM32F1xx_HAL/STM32F1xx_HAL_Driver/Src/stm32f1xx_hal_sram.o
 .ARM.attributes
                0x0000000000000000       0x33 /home/ldq/rk-linux/rt-thread/bsp/stm32/libraries/STM32F1xx_HAL/STM32F1xx_HAL_Driver/Src/stm32f1xx_hal_sram.o
 .text          0x0000000000000000        0x0 /home/ldq/rk-linux/rt-thread/bsp/stm32/libraries/STM32F1xx_HAL/STM32F1xx_HAL_Driver/Src/stm32f1xx_hal_gpio.o
 .data          0x0000000000000000        0x0 /home/ldq/rk-linux/rt-thread/bsp/stm32/libraries/STM32F1xx_HAL/STM32F1xx_HAL_Driver/Src/stm32f1xx_hal_gpio.o
 .bss           0x0000000000000000        0x0 /home/ldq/rk-linux/rt-thread/bsp/stm32/libraries/STM32F1xx_HAL/STM32F1xx_HAL_Driver/Src/stm32f1xx_hal_gpio.o
 .text.HAL_GPIO_TogglePin
                0x0000000000000000       0x22 /home/ldq/rk-linux/rt-thread/bsp/stm32/libraries/STM32F1xx_HAL/STM32F1xx_HAL_Driver/Src/stm32f1xx_hal_gpio.o
 .text.HAL_GPIO_LockPin
                0x0000000000000000       0x4e /home/ldq/rk-linux/rt-thread/bsp/stm32/libraries/STM32F1xx_HAL/STM32F1xx_HAL_Driver/Src/stm32f1xx_hal_gpio.o
 .text.HAL_GPIO_EXTI_Callback
                0x0000000000000000       0x14 /home/ldq/rk-linux/rt-thread/bsp/stm32/libraries/STM32F1xx_HAL/STM32F1xx_HAL_Driver/Src/stm32f1xx_hal_gpio.o
 .text          0x0000000000000000        0x0 /home/ldq/rk-linux/rt-thread/bsp/stm32/libraries/STM32F1xx_HAL/STM32F1xx_HAL_Driver/Src/stm32f1xx_hal_gpio_ex.o
 .data          0x0000000000000000        0x0 /home/ldq/rk-linux/rt-thread/bsp/stm32/libraries/STM32F1xx_HAL/STM32F1xx_HAL_Driver/Src/stm32f1xx_hal_gpio_ex.o
 .bss           0x0000000000000000        0x0 /home/ldq/rk-linux/rt-thread/bsp/stm32/libraries/STM32F1xx_HAL/STM32F1xx_HAL_Driver/Src/stm32f1xx_hal_gpio_ex.o
 .text.HAL_GPIOEx_ConfigEventout
                0x0000000000000000       0x2c /home/ldq/rk-linux/rt-thread/bsp/stm32/libraries/STM32F1xx_HAL/STM32F1xx_HAL_Driver/Src/stm32f1xx_hal_gpio_ex.o
 .text.HAL_GPIOEx_EnableEventout
                0x0000000000000000       0x1c /home/ldq/rk-linux/rt-thread/bsp/stm32/libraries/STM32F1xx_HAL/STM32F1xx_HAL_Driver/Src/stm32f1xx_hal_gpio_ex.o
 .text.HAL_GPIOEx_DisableEventout
                0x0000000000000000       0x1c /home/ldq/rk-linux/rt-thread/bsp/stm32/libraries/STM32F1xx_HAL/STM32F1xx_HAL_Driver/Src/stm32f1xx_hal_gpio_ex.o
 .debug_info    0x0000000000000000      0x2df /home/ldq/rk-linux/rt-thread/bsp/stm32/libraries/STM32F1xx_HAL/STM32F1xx_HAL_Driver/Src/stm32f1xx_hal_gpio_ex.o
 .debug_abbrev  0x0000000000000000      0x13d /home/ldq/rk-linux/rt-thread/bsp/stm32/libraries/STM32F1xx_HAL/STM32F1xx_HAL_Driver/Src/stm32f1xx_hal_gpio_ex.o
 .debug_loc     0x0000000000000000       0xe4 /home/ldq/rk-linux/rt-thread/bsp/stm32/libraries/STM32F1xx_HAL/STM32F1xx_HAL_Driver/Src/stm32f1xx_hal_gpio_ex.o
 .debug_aranges
                0x0000000000000000       0x30 /home/ldq/rk-linux/rt-thread/bsp/stm32/libraries/STM32F1xx_HAL/STM32F1xx_HAL_Driver/Src/stm32f1xx_hal_gpio_ex.o
 .debug_ranges  0x0000000000000000       0x20 /home/ldq/rk-linux/rt-thread/bsp/stm32/libraries/STM32F1xx_HAL/STM32F1xx_HAL_Driver/Src/stm32f1xx_hal_gpio_ex.o
 .debug_line    0x0000000000000000      0x2db /home/ldq/rk-linux/rt-thread/bsp/stm32/libraries/STM32F1xx_HAL/STM32F1xx_HAL_Driver/Src/stm32f1xx_hal_gpio_ex.o
 .debug_str     0x0000000000000000      0x3ac /home/ldq/rk-linux/rt-thread/bsp/stm32/libraries/STM32F1xx_HAL/STM32F1xx_HAL_Driver/Src/stm32f1xx_hal_gpio_ex.o
 .comment       0x0000000000000000       0x80 /home/ldq/rk-linux/rt-thread/bsp/stm32/libraries/STM32F1xx_HAL/STM32F1xx_HAL_Driver/Src/stm32f1xx_hal_gpio_ex.o
 .debug_frame   0x0000000000000000       0x78 /home/ldq/rk-linux/rt-thread/bsp/stm32/libraries/STM32F1xx_HAL/STM32F1xx_HAL_Driver/Src/stm32f1xx_hal_gpio_ex.o
 .ARM.attributes
                0x0000000000000000       0x33 /home/ldq/rk-linux/rt-thread/bsp/stm32/libraries/STM32F1xx_HAL/STM32F1xx_HAL_Driver/Src/stm32f1xx_hal_gpio_ex.o
 .text          0x0000000000000000        0x0 /home/ldq/rk-linux/rt-thread/bsp/stm32/libraries/STM32F1xx_HAL/STM32F1xx_HAL_Driver/Src/stm32f1xx_hal_uart.o
 .data          0x0000000000000000        0x0 /home/ldq/rk-linux/rt-thread/bsp/stm32/libraries/STM32F1xx_HAL/STM32F1xx_HAL_Driver/Src/stm32f1xx_hal_uart.o
 .bss           0x0000000000000000        0x0 /home/ldq/rk-linux/rt-thread/bsp/stm32/libraries/STM32F1xx_HAL/STM32F1xx_HAL_Driver/Src/stm32f1xx_hal_uart.o
 .text.HAL_HalfDuplex_Init
                0x0000000000000000       0xaa /home/ldq/rk-linux/rt-thread/bsp/stm32/libraries/STM32F1xx_HAL/STM32F1xx_HAL_Driver/Src/stm32f1xx_hal_uart.o
 .text.HAL_LIN_Init
                0x0000000000000000       0xc0 /home/ldq/rk-linux/rt-thread/bsp/stm32/libraries/STM32F1xx_HAL/STM32F1xx_HAL_Driver/Src/stm32f1xx_hal_uart.o
 .text.HAL_MultiProcessor_Init
                0x0000000000000000       0xc8 /home/ldq/rk-linux/rt-thread/bsp/stm32/libraries/STM32F1xx_HAL/STM32F1xx_HAL_Driver/Src/stm32f1xx_hal_uart.o
 .text.HAL_UART_DeInit
                0x0000000000000000       0x48 /home/ldq/rk-linux/rt-thread/bsp/stm32/libraries/STM32F1xx_HAL/STM32F1xx_HAL_Driver/Src/stm32f1xx_hal_uart.o
 .text.HAL_UART_MspInit
                0x0000000000000000       0x12 /home/ldq/rk-linux/rt-thread/bsp/stm32/libraries/STM32F1xx_HAL/STM32F1xx_HAL_Driver/Src/stm32f1xx_hal_uart.o
 .text.HAL_UART_MspDeInit
                0x0000000000000000       0x12 /home/ldq/rk-linux/rt-thread/bsp/stm32/libraries/STM32F1xx_HAL/STM32F1xx_HAL_Driver/Src/stm32f1xx_hal_uart.o
 .text.HAL_UART_Transmit
                0x0000000000000000      0x132 /home/ldq/rk-linux/rt-thread/bsp/stm32/libraries/STM32F1xx_HAL/STM32F1xx_HAL_Driver/Src/stm32f1xx_hal_uart.o
 .text.HAL_UART_Receive
                0x0000000000000000      0x14c /home/ldq/rk-linux/rt-thread/bsp/stm32/libraries/STM32F1xx_HAL/STM32F1xx_HAL_Driver/Src/stm32f1xx_hal_uart.o
 .text.HAL_UART_Transmit_IT
                0x0000000000000000       0x88 /home/ldq/rk-linux/rt-thread/bsp/stm32/libraries/STM32F1xx_HAL/STM32F1xx_HAL_Driver/Src/stm32f1xx_hal_uart.o
 .text.HAL_UART_Receive_IT
                0x0000000000000000       0xa8 /home/ldq/rk-linux/rt-thread/bsp/stm32/libraries/STM32F1xx_HAL/STM32F1xx_HAL_Driver/Src/stm32f1xx_hal_uart.o
 .text.HAL_UART_DMAPause
                0x0000000000000000       0xc6 /home/ldq/rk-linux/rt-thread/bsp/stm32/libraries/STM32F1xx_HAL/STM32F1xx_HAL_Driver/Src/stm32f1xx_hal_uart.o
 .text.HAL_UART_DMAResume
                0x0000000000000000       0xa0 /home/ldq/rk-linux/rt-thread/bsp/stm32/libraries/STM32F1xx_HAL/STM32F1xx_HAL_Driver/Src/stm32f1xx_hal_uart.o
 .text.HAL_UART_DMAStop
                0x0000000000000000       0xb6 /home/ldq/rk-linux/rt-thread/bsp/stm32/libraries/STM32F1xx_HAL/STM32F1xx_HAL_Driver/Src/stm32f1xx_hal_uart.o
 .text.HAL_UART_Abort
                0x0000000000000000       0xc4 /home/ldq/rk-linux/rt-thread/bsp/stm32/libraries/STM32F1xx_HAL/STM32F1xx_HAL_Driver/Src/stm32f1xx_hal_uart.o
 .text.HAL_UART_AbortTransmit
                0x0000000000000000       0x68 /home/ldq/rk-linux/rt-thread/bsp/stm32/libraries/STM32F1xx_HAL/STM32F1xx_HAL_Driver/Src/stm32f1xx_hal_uart.o
 .text.HAL_UART_AbortReceive
                0x0000000000000000       0x78 /home/ldq/rk-linux/rt-thread/bsp/stm32/libraries/STM32F1xx_HAL/STM32F1xx_HAL_Driver/Src/stm32f1xx_hal_uart.o
 .text.HAL_UART_Abort_IT
                0x0000000000000000      0x148 /home/ldq/rk-linux/rt-thread/bsp/stm32/libraries/STM32F1xx_HAL/STM32F1xx_HAL_Driver/Src/stm32f1xx_hal_uart.o
 .text.HAL_UART_AbortTransmit_IT
                0x0000000000000000       0xa0 /home/ldq/rk-linux/rt-thread/bsp/stm32/libraries/STM32F1xx_HAL/STM32F1xx_HAL_Driver/Src/stm32f1xx_hal_uart.o
 .text.HAL_UART_AbortReceive_IT
                0x0000000000000000       0xb0 /home/ldq/rk-linux/rt-thread/bsp/stm32/libraries/STM32F1xx_HAL/STM32F1xx_HAL_Driver/Src/stm32f1xx_hal_uart.o
 .text.HAL_UART_TxCpltCallback
                0x0000000000000000       0x12 /home/ldq/rk-linux/rt-thread/bsp/stm32/libraries/STM32F1xx_HAL/STM32F1xx_HAL_Driver/Src/stm32f1xx_hal_uart.o
 .text.HAL_UART_RxCpltCallback
                0x0000000000000000       0x12 /home/ldq/rk-linux/rt-thread/bsp/stm32/libraries/STM32F1xx_HAL/STM32F1xx_HAL_Driver/Src/stm32f1xx_hal_uart.o
 .text.HAL_UART_RxHalfCpltCallback
                0x0000000000000000       0x12 /home/ldq/rk-linux/rt-thread/bsp/stm32/libraries/STM32F1xx_HAL/STM32F1xx_HAL_Driver/Src/stm32f1xx_hal_uart.o
 .text.HAL_UART_ErrorCallback
                0x0000000000000000       0x12 /home/ldq/rk-linux/rt-thread/bsp/stm32/libraries/STM32F1xx_HAL/STM32F1xx_HAL_Driver/Src/stm32f1xx_hal_uart.o
 .text.HAL_UART_AbortCpltCallback
                0x0000000000000000       0x12 /home/ldq/rk-linux/rt-thread/bsp/stm32/libraries/STM32F1xx_HAL/STM32F1xx_HAL_Driver/Src/stm32f1xx_hal_uart.o
 .text.HAL_UART_AbortTransmitCpltCallback
                0x0000000000000000       0x12 /home/ldq/rk-linux/rt-thread/bsp/stm32/libraries/STM32F1xx_HAL/STM32F1xx_HAL_Driver/Src/stm32f1xx_hal_uart.o
 .text.HAL_UART_AbortReceiveCpltCallback
                0x0000000000000000       0x12 /home/ldq/rk-linux/rt-thread/bsp/stm32/libraries/STM32F1xx_HAL/STM32F1xx_HAL_Driver/Src/stm32f1xx_hal_uart.o
 .text.HAL_LIN_SendBreak
                0x0000000000000000       0x52 /home/ldq/rk-linux/rt-thread/bsp/stm32/libraries/STM32F1xx_HAL/STM32F1xx_HAL_Driver/Src/stm32f1xx_hal_uart.o
 .text.HAL_MultiProcessor_EnterMuteMode
                0x0000000000000000       0x52 /home/ldq/rk-linux/rt-thread/bsp/stm32/libraries/STM32F1xx_HAL/STM32F1xx_HAL_Driver/Src/stm32f1xx_hal_uart.o
 .text.HAL_MultiProcessor_ExitMuteMode
                0x0000000000000000       0x52 /home/ldq/rk-linux/rt-thread/bsp/stm32/libraries/STM32F1xx_HAL/STM32F1xx_HAL_Driver/Src/stm32f1xx_hal_uart.o
 .text.HAL_HalfDuplex_EnableTransmitter
                0x0000000000000000       0x66 /home/ldq/rk-linux/rt-thread/bsp/stm32/libraries/STM32F1xx_HAL/STM32F1xx_HAL_Driver/Src/stm32f1xx_hal_uart.o
 .text.HAL_HalfDuplex_EnableReceiver
                0x0000000000000000       0x66 /home/ldq/rk-linux/rt-thread/bsp/stm32/libraries/STM32F1xx_HAL/STM32F1xx_HAL_Driver/Src/stm32f1xx_hal_uart.o
 .text.HAL_UART_GetState
                0x0000000000000000       0x3a /home/ldq/rk-linux/rt-thread/bsp/stm32/libraries/STM32F1xx_HAL/STM32F1xx_HAL_Driver/Src/stm32f1xx_hal_uart.o
 .text.HAL_UART_GetError
                0x0000000000000000       0x16 /home/ldq/rk-linux/rt-thread/bsp/stm32/libraries/STM32F1xx_HAL/STM32F1xx_HAL_Driver/Src/stm32f1xx_hal_uart.o
 .text.UART_WaitOnFlagUntilTimeout
                0x0000000000000000       0x94 /home/ldq/rk-linux/rt-thread/bsp/stm32/libraries/STM32F1xx_HAL/STM32F1xx_HAL_Driver/Src/stm32f1xx_hal_uart.o
 .text.UART_DMATxAbortCallback
                0x0000000000000000       0x5a /home/ldq/rk-linux/rt-thread/bsp/stm32/libraries/STM32F1xx_HAL/STM32F1xx_HAL_Driver/Src/stm32f1xx_hal_uart.o
 .text.UART_DMARxAbortCallback
                0x0000000000000000       0x5a /home/ldq/rk-linux/rt-thread/bsp/stm32/libraries/STM32F1xx_HAL/STM32F1xx_HAL_Driver/Src/stm32f1xx_hal_uart.o
 .text.UART_DMATxOnlyAbortCallback
                0x0000000000000000       0x2a /home/ldq/rk-linux/rt-thread/bsp/stm32/libraries/STM32F1xx_HAL/STM32F1xx_HAL_Driver/Src/stm32f1xx_hal_uart.o
 .text.UART_DMARxOnlyAbortCallback
                0x0000000000000000       0x2a /home/ldq/rk-linux/rt-thread/bsp/stm32/libraries/STM32F1xx_HAL/STM32F1xx_HAL_Driver/Src/stm32f1xx_hal_uart.o
 .text          0x0000000000000000        0x0 /home/ldq/rk-linux/rt-thread/bsp/stm32/libraries/STM32F1xx_HAL/STM32F1xx_HAL_Driver/Src/stm32f1xx_hal_usart.o
 .data          0x0000000000000000        0x0 /home/ldq/rk-linux/rt-thread/bsp/stm32/libraries/STM32F1xx_HAL/STM32F1xx_HAL_Driver/Src/stm32f1xx_hal_usart.o
 .bss           0x0000000000000000        0x0 /home/ldq/rk-linux/rt-thread/bsp/stm32/libraries/STM32F1xx_HAL/STM32F1xx_HAL_Driver/Src/stm32f1xx_hal_usart.o
 .debug_info    0x0000000000000000      0x1f9 /home/ldq/rk-linux/rt-thread/bsp/stm32/libraries/STM32F1xx_HAL/STM32F1xx_HAL_Driver/Src/stm32f1xx_hal_usart.o
 .debug_abbrev  0x0000000000000000       0xcf /home/ldq/rk-linux/rt-thread/bsp/stm32/libraries/STM32F1xx_HAL/STM32F1xx_HAL_Driver/Src/stm32f1xx_hal_usart.o
 .debug_aranges
                0x0000000000000000       0x18 /home/ldq/rk-linux/rt-thread/bsp/stm32/libraries/STM32F1xx_HAL/STM32F1xx_HAL_Driver/Src/stm32f1xx_hal_usart.o
 .debug_line    0x0000000000000000      0x221 /home/ldq/rk-linux/rt-thread/bsp/stm32/libraries/STM32F1xx_HAL/STM32F1xx_HAL_Driver/Src/stm32f1xx_hal_usart.o
 .debug_str     0x0000000000000000      0x30e /home/ldq/rk-linux/rt-thread/bsp/stm32/libraries/STM32F1xx_HAL/STM32F1xx_HAL_Driver/Src/stm32f1xx_hal_usart.o
 .comment       0x0000000000000000       0x80 /home/ldq/rk-linux/rt-thread/bsp/stm32/libraries/STM32F1xx_HAL/STM32F1xx_HAL_Driver/Src/stm32f1xx_hal_usart.o
 .ARM.attributes
                0x0000000000000000       0x33 /home/ldq/rk-linux/rt-thread/bsp/stm32/libraries/STM32F1xx_HAL/STM32F1xx_HAL_Driver/Src/stm32f1xx_hal_usart.o
 .text          0x0000000000000000        0x0 /home/ldq/rk-linux/rt-thread/bsp/stm32/libraries/HAL_Drivers/drv_gpio.o
 .data          0x0000000000000000        0x0 /home/ldq/rk-linux/rt-thread/bsp/stm32/libraries/HAL_Drivers/drv_gpio.o
 .bss           0x0000000000000000        0x0 /home/ldq/rk-linux/rt-thread/bsp/stm32/libraries/HAL_Drivers/drv_gpio.o
 .text          0x0000000000000000        0x0 /home/ldq/rk-linux/rt-thread/bsp/stm32/libraries/HAL_Drivers/drv_usart.o
 .data          0x0000000000000000        0x0 /home/ldq/rk-linux/rt-thread/bsp/stm32/libraries/HAL_Drivers/drv_usart.o
 .bss           0x0000000000000000        0x0 /home/ldq/rk-linux/rt-thread/bsp/stm32/libraries/HAL_Drivers/drv_usart.o
 .text          0x0000000000000000        0x0 /home/ldq/rk-linux/rt-thread/bsp/stm32/libraries/HAL_Drivers/drv_common.o
 .data          0x0000000000000000        0x0 /home/ldq/rk-linux/rt-thread/bsp/stm32/libraries/HAL_Drivers/drv_common.o
 .bss           0x0000000000000000        0x0 /home/ldq/rk-linux/rt-thread/bsp/stm32/libraries/HAL_Drivers/drv_common.o
 .text.HAL_SuspendTick
                0x0000000000000000        0xc /home/ldq/rk-linux/rt-thread/bsp/stm32/libraries/HAL_Drivers/drv_common.o
 .text.HAL_ResumeTick
                0x0000000000000000        0xc /home/ldq/rk-linux/rt-thread/bsp/stm32/libraries/HAL_Drivers/drv_common.o
 .text.HAL_Delay
                0x0000000000000000       0x12 /home/ldq/rk-linux/rt-thread/bsp/stm32/libraries/HAL_Drivers/drv_common.o
 .text.rt_hw_us_delay
                0x0000000000000000       0x68 /home/ldq/rk-linux/rt-thread/bsp/stm32/libraries/HAL_Drivers/drv_common.o
 .text          0x0000000000000000      0x378 /home/ldq/rk-linux/prebuilts/gcc-arm-none-eabi-7-2018-q2-update/bin/../lib/gcc/arm-none-eabi/7.3.1/thumb/v7-m/libgcc.a(_arm_addsubdf3.o)
 .data          0x0000000000000000        0x0 /home/ldq/rk-linux/prebuilts/gcc-arm-none-eabi-7-2018-q2-update/bin/../lib/gcc/arm-none-eabi/7.3.1/thumb/v7-m/libgcc.a(_arm_addsubdf3.o)
 .bss           0x0000000000000000        0x0 /home/ldq/rk-linux/prebuilts/gcc-arm-none-eabi-7-2018-q2-update/bin/../lib/gcc/arm-none-eabi/7.3.1/thumb/v7-m/libgcc.a(_arm_addsubdf3.o)
 .debug_frame   0x0000000000000000       0xac /home/ldq/rk-linux/prebuilts/gcc-arm-none-eabi-7-2018-q2-update/bin/../lib/gcc/arm-none-eabi/7.3.1/thumb/v7-m/libgcc.a(_arm_addsubdf3.o)
 .ARM.attributes
                0x0000000000000000       0x1d /home/ldq/rk-linux/prebuilts/gcc-arm-none-eabi-7-2018-q2-update/bin/../lib/gcc/arm-none-eabi/7.3.1/thumb/v7-m/libgcc.a(_arm_addsubdf3.o)
 .text          0x0000000000000000      0x424 /home/ldq/rk-linux/prebuilts/gcc-arm-none-eabi-7-2018-q2-update/bin/../lib/gcc/arm-none-eabi/7.3.1/thumb/v7-m/libgcc.a(_arm_muldivdf3.o)
 .data          0x0000000000000000        0x0 /home/ldq/rk-linux/prebuilts/gcc-arm-none-eabi-7-2018-q2-update/bin/../lib/gcc/arm-none-eabi/7.3.1/thumb/v7-m/libgcc.a(_arm_muldivdf3.o)
 .bss           0x0000000000000000        0x0 /home/ldq/rk-linux/prebuilts/gcc-arm-none-eabi-7-2018-q2-update/bin/../lib/gcc/arm-none-eabi/7.3.1/thumb/v7-m/libgcc.a(_arm_muldivdf3.o)
 .debug_frame   0x0000000000000000       0x50 /home/ldq/rk-linux/prebuilts/gcc-arm-none-eabi-7-2018-q2-update/bin/../lib/gcc/arm-none-eabi/7.3.1/thumb/v7-m/libgcc.a(_arm_muldivdf3.o)
 .ARM.attributes
                0x0000000000000000       0x1d /home/ldq/rk-linux/prebuilts/gcc-arm-none-eabi-7-2018-q2-update/bin/../lib/gcc/arm-none-eabi/7.3.1/thumb/v7-m/libgcc.a(_arm_muldivdf3.o)
 .text          0x0000000000000000       0x50 /home/ldq/rk-linux/prebuilts/gcc-arm-none-eabi-7-2018-q2-update/bin/../lib/gcc/arm-none-eabi/7.3.1/thumb/v7-m/libgcc.a(_arm_fixdfsi.o)
 .data          0x0000000000000000        0x0 /home/ldq/rk-linux/prebuilts/gcc-arm-none-eabi-7-2018-q2-update/bin/../lib/gcc/arm-none-eabi/7.3.1/thumb/v7-m/libgcc.a(_arm_fixdfsi.o)
 .bss           0x0000000000000000        0x0 /home/ldq/rk-linux/prebuilts/gcc-arm-none-eabi-7-2018-q2-update/bin/../lib/gcc/arm-none-eabi/7.3.1/thumb/v7-m/libgcc.a(_arm_fixdfsi.o)
 .debug_frame   0x0000000000000000       0x24 /home/ldq/rk-linux/prebuilts/gcc-arm-none-eabi-7-2018-q2-update/bin/../lib/gcc/arm-none-eabi/7.3.1/thumb/v7-m/libgcc.a(_arm_fixdfsi.o)
 .ARM.attributes
                0x0000000000000000       0x1d /home/ldq/rk-linux/prebuilts/gcc-arm-none-eabi-7-2018-q2-update/bin/../lib/gcc/arm-none-eabi/7.3.1/thumb/v7-m/libgcc.a(_arm_fixdfsi.o)
 .text          0x0000000000000000        0x0 /home/ldq/rk-linux/prebuilts/gcc-arm-none-eabi-7-2018-q2-update/bin/../lib/gcc/arm-none-eabi/7.3.1/../../../../arm-none-eabi/lib/thumb/v7-m/libc.a(lib_a-exit.o)
 .data          0x0000000000000000        0x0 /home/ldq/rk-linux/prebuilts/gcc-arm-none-eabi-7-2018-q2-update/bin/../lib/gcc/arm-none-eabi/7.3.1/../../../../arm-none-eabi/lib/thumb/v7-m/libc.a(lib_a-exit.o)
 .bss           0x0000000000000000        0x0 /home/ldq/rk-linux/prebuilts/gcc-arm-none-eabi-7-2018-q2-update/bin/../lib/gcc/arm-none-eabi/7.3.1/../../../../arm-none-eabi/lib/thumb/v7-m/libc.a(lib_a-exit.o)
 .text.exit     0x0000000000000000       0x20 /home/ldq/rk-linux/prebuilts/gcc-arm-none-eabi-7-2018-q2-update/bin/../lib/gcc/arm-none-eabi/7.3.1/../../../../arm-none-eabi/lib/thumb/v7-m/libc.a(lib_a-exit.o)
 .debug_frame   0x0000000000000000       0x28 /home/ldq/rk-linux/prebuilts/gcc-arm-none-eabi-7-2018-q2-update/bin/../lib/gcc/arm-none-eabi/7.3.1/../../../../arm-none-eabi/lib/thumb/v7-m/libc.a(lib_a-exit.o)
 .ARM.attributes
                0x0000000000000000       0x2d /home/ldq/rk-linux/prebuilts/gcc-arm-none-eabi-7-2018-q2-update/bin/../lib/gcc/arm-none-eabi/7.3.1/../../../../arm-none-eabi/lib/thumb/v7-m/libc.a(lib_a-exit.o)
 .text          0x0000000000000000        0x0 /home/ldq/rk-linux/prebuilts/gcc-arm-none-eabi-7-2018-q2-update/bin/../lib/gcc/arm-none-eabi/7.3.1/../../../../arm-none-eabi/lib/thumb/v7-m/libc.a(lib_a-impure.o)
 .data          0x0000000000000000        0x0 /home/ldq/rk-linux/prebuilts/gcc-arm-none-eabi-7-2018-q2-update/bin/../lib/gcc/arm-none-eabi/7.3.1/../../../../arm-none-eabi/lib/thumb/v7-m/libc.a(lib_a-impure.o)
 .bss           0x0000000000000000        0x0 /home/ldq/rk-linux/prebuilts/gcc-arm-none-eabi-7-2018-q2-update/bin/../lib/gcc/arm-none-eabi/7.3.1/../../../../arm-none-eabi/lib/thumb/v7-m/libc.a(lib_a-impure.o)
 .data._impure_ptr
                0x0000000000000000        0x4 /home/ldq/rk-linux/prebuilts/gcc-arm-none-eabi-7-2018-q2-update/bin/../lib/gcc/arm-none-eabi/7.3.1/../../../../arm-none-eabi/lib/thumb/v7-m/libc.a(lib_a-impure.o)
 .text          0x0000000000000000        0x0 /home/ldq/rk-linux/prebuilts/gcc-arm-none-eabi-7-2018-q2-update/bin/../lib/gcc/arm-none-eabi/7.3.1/../../../../arm-none-eabi/lib/thumb/v7-m/libc.a(lib_a-init.o)
 .data          0x0000000000000000        0x0 /home/ldq/rk-linux/prebuilts/gcc-arm-none-eabi-7-2018-q2-update/bin/../lib/gcc/arm-none-eabi/7.3.1/../../../../arm-none-eabi/lib/thumb/v7-m/libc.a(lib_a-init.o)
 .bss           0x0000000000000000        0x0 /home/ldq/rk-linux/prebuilts/gcc-arm-none-eabi-7-2018-q2-update/bin/../lib/gcc/arm-none-eabi/7.3.1/../../../../arm-none-eabi/lib/thumb/v7-m/libc.a(lib_a-init.o)
 .text.__libc_init_array
                0x0000000000000000       0x48 /home/ldq/rk-linux/prebuilts/gcc-arm-none-eabi-7-2018-q2-update/bin/../lib/gcc/arm-none-eabi/7.3.1/../../../../arm-none-eabi/lib/thumb/v7-m/libc.a(lib_a-init.o)
 .debug_frame   0x0000000000000000       0x2c /home/ldq/rk-linux/prebuilts/gcc-arm-none-eabi-7-2018-q2-update/bin/../lib/gcc/arm-none-eabi/7.3.1/../../../../arm-none-eabi/lib/thumb/v7-m/libc.a(lib_a-init.o)
 .ARM.attributes
                0x0000000000000000       0x2d /home/ldq/rk-linux/prebuilts/gcc-arm-none-eabi-7-2018-q2-update/bin/../lib/gcc/arm-none-eabi/7.3.1/../../../../arm-none-eabi/lib/thumb/v7-m/libc.a(lib_a-init.o)
 .text          0x0000000000000000        0x0 /home/ldq/rk-linux/prebuilts/gcc-arm-none-eabi-7-2018-q2-update/bin/../lib/gcc/arm-none-eabi/7.3.1/../../../../arm-none-eabi/lib/thumb/v7-m/libc.a(lib_a-__call_atexit.o)
 .data          0x0000000000000000        0x0 /home/ldq/rk-linux/prebuilts/gcc-arm-none-eabi-7-2018-q2-update/bin/../lib/gcc/arm-none-eabi/7.3.1/../../../../arm-none-eabi/lib/thumb/v7-m/libc.a(lib_a-__call_atexit.o)
 .bss           0x0000000000000000        0x0 /home/ldq/rk-linux/prebuilts/gcc-arm-none-eabi-7-2018-q2-update/bin/../lib/gcc/arm-none-eabi/7.3.1/../../../../arm-none-eabi/lib/thumb/v7-m/libc.a(lib_a-__call_atexit.o)
 .text.__call_exitprocs
                0x0000000000000000       0xe8 /home/ldq/rk-linux/prebuilts/gcc-arm-none-eabi-7-2018-q2-update/bin/../lib/gcc/arm-none-eabi/7.3.1/../../../../arm-none-eabi/lib/thumb/v7-m/libc.a(lib_a-__call_atexit.o)
 .text          0x0000000000000000        0x0 /home/ldq/rk-linux/prebuilts/gcc-arm-none-eabi-7-2018-q2-update/bin/../lib/gcc/arm-none-eabi/7.3.1/../../../../arm-none-eabi/lib/thumb/v7-m/libc.a(lib_a-atexit.o)
 .data          0x0000000000000000        0x0 /home/ldq/rk-linux/prebuilts/gcc-arm-none-eabi-7-2018-q2-update/bin/../lib/gcc/arm-none-eabi/7.3.1/../../../../arm-none-eabi/lib/thumb/v7-m/libc.a(lib_a-atexit.o)
 .bss           0x0000000000000000        0x0 /home/ldq/rk-linux/prebuilts/gcc-arm-none-eabi-7-2018-q2-update/bin/../lib/gcc/arm-none-eabi/7.3.1/../../../../arm-none-eabi/lib/thumb/v7-m/libc.a(lib_a-atexit.o)
 .text          0x0000000000000000        0x0 /home/ldq/rk-linux/prebuilts/gcc-arm-none-eabi-7-2018-q2-update/bin/../lib/gcc/arm-none-eabi/7.3.1/../../../../arm-none-eabi/lib/thumb/v7-m/libc.a(lib_a-fini.o)
 .data          0x0000000000000000        0x0 /home/ldq/rk-linux/prebuilts/gcc-arm-none-eabi-7-2018-q2-update/bin/../lib/gcc/arm-none-eabi/7.3.1/../../../../arm-none-eabi/lib/thumb/v7-m/libc.a(lib_a-fini.o)
 .bss           0x0000000000000000        0x0 /home/ldq/rk-linux/prebuilts/gcc-arm-none-eabi-7-2018-q2-update/bin/../lib/gcc/arm-none-eabi/7.3.1/../../../../arm-none-eabi/lib/thumb/v7-m/libc.a(lib_a-fini.o)
 .text          0x0000000000000000        0x0 /home/ldq/rk-linux/prebuilts/gcc-arm-none-eabi-7-2018-q2-update/bin/../lib/gcc/arm-none-eabi/7.3.1/../../../../arm-none-eabi/lib/thumb/v7-m/libc.a(lib_a-lock.o)
 .data          0x0000000000000000        0x0 /home/ldq/rk-linux/prebuilts/gcc-arm-none-eabi-7-2018-q2-update/bin/../lib/gcc/arm-none-eabi/7.3.1/../../../../arm-none-eabi/lib/thumb/v7-m/libc.a(lib_a-lock.o)
 .bss           0x0000000000000000        0x0 /home/ldq/rk-linux/prebuilts/gcc-arm-none-eabi-7-2018-q2-update/bin/../lib/gcc/arm-none-eabi/7.3.1/../../../../arm-none-eabi/lib/thumb/v7-m/libc.a(lib_a-lock.o)
 .text.__retarget_lock_init
                0x0000000000000000        0x4 /home/ldq/rk-linux/prebuilts/gcc-arm-none-eabi-7-2018-q2-update/bin/../lib/gcc/arm-none-eabi/7.3.1/../../../../arm-none-eabi/lib/thumb/v7-m/libc.a(lib_a-lock.o)
 .text.__retarget_lock_init_recursive
                0x0000000000000000        0x4 /home/ldq/rk-linux/prebuilts/gcc-arm-none-eabi-7-2018-q2-update/bin/../lib/gcc/arm-none-eabi/7.3.1/../../../../arm-none-eabi/lib/thumb/v7-m/libc.a(lib_a-lock.o)
 .text.__retarget_lock_close
                0x0000000000000000        0x4 /home/ldq/rk-linux/prebuilts/gcc-arm-none-eabi-7-2018-q2-update/bin/../lib/gcc/arm-none-eabi/7.3.1/../../../../arm-none-eabi/lib/thumb/v7-m/libc.a(lib_a-lock.o)
 .text.__retarget_lock_close_recursive
                0x0000000000000000        0x4 /home/ldq/rk-linux/prebuilts/gcc-arm-none-eabi-7-2018-q2-update/bin/../lib/gcc/arm-none-eabi/7.3.1/../../../../arm-none-eabi/lib/thumb/v7-m/libc.a(lib_a-lock.o)
 .text.__retarget_lock_acquire
                0x0000000000000000        0x4 /home/ldq/rk-linux/prebuilts/gcc-arm-none-eabi-7-2018-q2-update/bin/../lib/gcc/arm-none-eabi/7.3.1/../../../../arm-none-eabi/lib/thumb/v7-m/libc.a(lib_a-lock.o)
 .text.__retarget_lock_try_acquire
                0x0000000000000000        0x4 /home/ldq/rk-linux/prebuilts/gcc-arm-none-eabi-7-2018-q2-update/bin/../lib/gcc/arm-none-eabi/7.3.1/../../../../arm-none-eabi/lib/thumb/v7-m/libc.a(lib_a-lock.o)
 .text.__retarget_lock_try_acquire_recursive
                0x0000000000000000        0x4 /home/ldq/rk-linux/prebuilts/gcc-arm-none-eabi-7-2018-q2-update/bin/../lib/gcc/arm-none-eabi/7.3.1/../../../../arm-none-eabi/lib/thumb/v7-m/libc.a(lib_a-lock.o)
 .text.__retarget_lock_release
                0x0000000000000000        0x4 /home/ldq/rk-linux/prebuilts/gcc-arm-none-eabi-7-2018-q2-update/bin/../lib/gcc/arm-none-eabi/7.3.1/../../../../arm-none-eabi/lib/thumb/v7-m/libc.a(lib_a-lock.o)
 .text          0x0000000000000000        0x0 /home/ldq/rk-linux/prebuilts/gcc-arm-none-eabi-7-2018-q2-update/bin/../lib/gcc/arm-none-eabi/7.3.1/../../../../arm-none-eabi/lib/thumb/v7-m/libc.a(lib_a-__atexit.o)
 .data          0x0000000000000000        0x0 /home/ldq/rk-linux/prebuilts/gcc-arm-none-eabi-7-2018-q2-update/bin/../lib/gcc/arm-none-eabi/7.3.1/../../../../arm-none-eabi/lib/thumb/v7-m/libc.a(lib_a-__atexit.o)
 .bss           0x0000000000000000        0x0 /home/ldq/rk-linux/prebuilts/gcc-arm-none-eabi-7-2018-q2-update/bin/../lib/gcc/arm-none-eabi/7.3.1/../../../../arm-none-eabi/lib/thumb/v7-m/libc.a(lib_a-__atexit.o)
 .text          0x0000000000000000        0x0 /home/ldq/rk-linux/prebuilts/gcc-arm-none-eabi-7-2018-q2-update/bin/../lib/gcc/arm-none-eabi/7.3.1/thumb/v7-m/crtend.o
 .data          0x0000000000000000        0x0 /home/ldq/rk-linux/prebuilts/gcc-arm-none-eabi-7-2018-q2-update/bin/../lib/gcc/arm-none-eabi/7.3.1/thumb/v7-m/crtend.o
 .bss           0x0000000000000000        0x0 /home/ldq/rk-linux/prebuilts/gcc-arm-none-eabi-7-2018-q2-update/bin/../lib/gcc/arm-none-eabi/7.3.1/thumb/v7-m/crtend.o
 .eh_frame      0x0000000000000000        0x4 /home/ldq/rk-linux/prebuilts/gcc-arm-none-eabi-7-2018-q2-update/bin/../lib/gcc/arm-none-eabi/7.3.1/thumb/v7-m/crtend.o
 .ARM.attributes
                0x0000000000000000       0x2d /home/ldq/rk-linux/prebuilts/gcc-arm-none-eabi-7-2018-q2-update/bin/../lib/gcc/arm-none-eabi/7.3.1/thumb/v7-m/crtend.o
 .text          0x0000000000000000        0x0 /home/ldq/rk-linux/prebuilts/gcc-arm-none-eabi-7-2018-q2-update/bin/../lib/gcc/arm-none-eabi/7.3.1/thumb/v7-m/crtn.o
 .data          0x0000000000000000        0x0 /home/ldq/rk-linux/prebuilts/gcc-arm-none-eabi-7-2018-q2-update/bin/../lib/gcc/arm-none-eabi/7.3.1/thumb/v7-m/crtn.o
 .bss           0x0000000000000000        0x0 /home/ldq/rk-linux/prebuilts/gcc-arm-none-eabi-7-2018-q2-update/bin/../lib/gcc/arm-none-eabi/7.3.1/thumb/v7-m/crtn.o
 .init          0x0000000000000000        0x8 /home/ldq/rk-linux/prebuilts/gcc-arm-none-eabi-7-2018-q2-update/bin/../lib/gcc/arm-none-eabi/7.3.1/thumb/v7-m/crtn.o
 .fini          0x0000000000000000        0x8 /home/ldq/rk-linux/prebuilts/gcc-arm-none-eabi-7-2018-q2-update/bin/../lib/gcc/arm-none-eabi/7.3.1/thumb/v7-m/crtn.o
 .ARM.attributes
                0x0000000000000000       0x1d /home/ldq/rk-linux/prebuilts/gcc-arm-none-eabi-7-2018-q2-update/bin/../lib/gcc/arm-none-eabi/7.3.1/thumb/v7-m/crtn.o

Memory Configuration

Name             Origin             Length             Attributes
ROM              0x0000000008000000 0x0000000000080000 xr
RAM              0x0000000020000000 0x0000000000010000 rw
*default*        0x0000000000000000 0xffffffffffffffff

Linker script and memory map

LOAD /home/ldq/rk-linux/prebuilts/gcc-arm-none-eabi-7-2018-q2-update/bin/../lib/gcc/arm-none-eabi/7.3.1/thumb/v7-m/crti.o
LOAD /home/ldq/rk-linux/prebuilts/gcc-arm-none-eabi-7-2018-q2-update/bin/../lib/gcc/arm-none-eabi/7.3.1/thumb/v7-m/crtbegin.o
LOAD /home/ldq/rk-linux/prebuilts/gcc-arm-none-eabi-7-2018-q2-update/bin/../lib/gcc/arm-none-eabi/7.3.1/../../../../arm-none-eabi/lib/thumb/v7-m/crt0.o
LOAD build/applications/main.o
LOAD build/board/board.o
LOAD build/board/CubeMX_Config/Src/stm32f1xx_hal_msp.o
LOAD /home/ldq/rk-linux/rt-thread/bsp/stm32/libraries/STM32F1xx_HAL/CMSIS/Device/ST/STM32F1xx/Source/Templates/gcc/startup_stm32f103xe.o
LOAD build/kernel/src/clock.o
LOAD build/kernel/src/components.o
LOAD build/kernel/src/cpu.o
LOAD build/kernel/src/device.o
LOAD build/kernel/src/idle.o
LOAD build/kernel/src/ipc.o
LOAD build/kernel/src/irq.o
LOAD build/kernel/src/kservice.o
LOAD build/kernel/src/mem.o
LOAD build/kernel/src/mempool.o
LOAD build/kernel/src/object.o
LOAD build/kernel/src/scheduler.o
LOAD build/kernel/src/signal.o
LOAD build/kernel/src/thread.o
LOAD build/kernel/src/timer.o
LOAD build/kernel/libcpu/arm/common/backtrace.o
LOAD build/kernel/libcpu/arm/common/div0.o
LOAD build/kernel/libcpu/arm/common/showmem.o
LOAD build/kernel/libcpu/arm/cortex-m3/cpuport.o
LOAD build/kernel/libcpu/arm/cortex-m3/context_gcc.o
LOAD build/kernel/components/drivers/misc/pin.o
LOAD build/kernel/components/drivers/serial/serial.o
LOAD build/kernel/components/drivers/src/completion.o
LOAD build/kernel/components/drivers/src/dataqueue.o
LOAD build/kernel/components/drivers/src/pipe.o
LOAD build/kernel/components/drivers/src/ringblk_buf.o
LOAD build/kernel/components/drivers/src/ringbuffer.o
LOAD build/kernel/components/drivers/src/waitqueue.o
LOAD build/kernel/components/drivers/src/workqueue.o
LOAD build/kernel/components/finsh/shell.o
LOAD build/kernel/components/finsh/symbol.o
LOAD build/kernel/components/finsh/cmd.o
LOAD build/kernel/components/finsh/msh.o
LOAD build/kernel/components/finsh/msh_cmd.o
LOAD build/kernel/components/finsh/msh_file.o
LOAD build/kernel/components/libc/compilers/minilibc/ctype.o
LOAD build/kernel/components/libc/compilers/minilibc/math.o
LOAD build/kernel/components/libc/compilers/minilibc/qsort.o
LOAD build/kernel/components/libc/compilers/minilibc/rand.o
LOAD build/kernel/components/libc/compilers/minilibc/stdlib.o
LOAD build/kernel/components/libc/compilers/minilibc/string.o
LOAD build/kernel/components/libc/compilers/minilibc/time.o
LOAD /home/ldq/rk-linux/rt-thread/bsp/stm32/libraries/STM32F1xx_HAL/CMSIS/Device/ST/STM32F1xx/Source/Templates/system_stm32f1xx.o
LOAD /home/ldq/rk-linux/rt-thread/bsp/stm32/libraries/STM32F1xx_HAL/STM32F1xx_HAL_Driver/Src/stm32f1xx_hal_dma.o
LOAD /home/ldq/rk-linux/rt-thread/bsp/stm32/libraries/STM32F1xx_HAL/STM32F1xx_HAL_Driver/Src/stm32f1xx_hal_cortex.o
LOAD /home/ldq/rk-linux/rt-thread/bsp/stm32/libraries/STM32F1xx_HAL/STM32F1xx_HAL_Driver/Src/stm32f1xx_hal_crc.o
LOAD /home/ldq/rk-linux/rt-thread/bsp/stm32/libraries/STM32F1xx_HAL/STM32F1xx_HAL_Driver/Src/stm32f1xx_hal_pwr.o
LOAD /home/ldq/rk-linux/rt-thread/bsp/stm32/libraries/STM32F1xx_HAL/STM32F1xx_HAL_Driver/Src/stm32f1xx_hal_rcc.o
LOAD /home/ldq/rk-linux/rt-thread/bsp/stm32/libraries/STM32F1xx_HAL/STM32F1xx_HAL_Driver/Src/stm32f1xx_hal_rcc_ex.o
LOAD /home/ldq/rk-linux/rt-thread/bsp/stm32/libraries/STM32F1xx_HAL/STM32F1xx_HAL_Driver/Src/stm32f1xx_hal.o
LOAD /home/ldq/rk-linux/rt-thread/bsp/stm32/libraries/STM32F1xx_HAL/STM32F1xx_HAL_Driver/Src/stm32f1xx_hal_cec.o
LOAD /home/ldq/rk-linux/rt-thread/bsp/stm32/libraries/STM32F1xx_HAL/STM32F1xx_HAL_Driver/Src/stm32f1xx_hal_sram.o
LOAD /home/ldq/rk-linux/rt-thread/bsp/stm32/libraries/STM32F1xx_HAL/STM32F1xx_HAL_Driver/Src/stm32f1xx_hal_gpio.o
LOAD /home/ldq/rk-linux/rt-thread/bsp/stm32/libraries/STM32F1xx_HAL/STM32F1xx_HAL_Driver/Src/stm32f1xx_hal_gpio_ex.o
LOAD /home/ldq/rk-linux/rt-thread/bsp/stm32/libraries/STM32F1xx_HAL/STM32F1xx_HAL_Driver/Src/stm32f1xx_hal_uart.o
LOAD /home/ldq/rk-linux/rt-thread/bsp/stm32/libraries/STM32F1xx_HAL/STM32F1xx_HAL_Driver/Src/stm32f1xx_hal_usart.o
LOAD /home/ldq/rk-linux/rt-thread/bsp/stm32/libraries/HAL_Drivers/drv_gpio.o
LOAD /home/ldq/rk-linux/rt-thread/bsp/stm32/libraries/HAL_Drivers/drv_usart.o
LOAD /home/ldq/rk-linux/rt-thread/bsp/stm32/libraries/HAL_Drivers/drv_common.o
START GROUP
LOAD /home/ldq/rk-linux/prebuilts/gcc-arm-none-eabi-7-2018-q2-update/bin/../lib/gcc/arm-none-eabi/7.3.1/thumb/v7-m/libgcc.a
LOAD /home/ldq/rk-linux/prebuilts/gcc-arm-none-eabi-7-2018-q2-update/bin/../lib/gcc/arm-none-eabi/7.3.1/../../../../arm-none-eabi/lib/thumb/v7-m/libc.a
END GROUP
LOAD /home/ldq/rk-linux/prebuilts/gcc-arm-none-eabi-7-2018-q2-update/bin/../lib/gcc/arm-none-eabi/7.3.1/thumb/v7-m/crtend.o
LOAD /home/ldq/rk-linux/prebuilts/gcc-arm-none-eabi-7-2018-q2-update/bin/../lib/gcc/arm-none-eabi/7.3.1/thumb/v7-m/crtn.o
                0x0000000000000200                _system_stack_size = 0x200

.text           0x0000000008000000     0xdd3c
                0x0000000008000000                . = ALIGN (0x4)
                0x0000000008000000                _stext = .
 *(.isr_vector)
 .isr_vector    0x0000000008000000      0x1e4 /home/ldq/rk-linux/rt-thread/bsp/stm32/libraries/STM32F1xx_HAL/CMSIS/Device/ST/STM32F1xx/Source/Templates/gcc/startup_stm32f103xe.o
                0x0000000008000000                g_pfnVectors
                0x00000000080001e4                . = ALIGN (0x4)
 *(.text)
 .text          0x00000000080001e4       0x40 /home/ldq/rk-linux/prebuilts/gcc-arm-none-eabi-7-2018-q2-update/bin/../lib/gcc/arm-none-eabi/7.3.1/thumb/v7-m/crtbegin.o
 .text          0x0000000008000224      0x100 build/kernel/libcpu/arm/cortex-m3/context_gcc.o
                0x0000000008000224                rt_hw_interrupt_disable
                0x000000000800022c                rt_hw_interrupt_enable
                0x0000000008000232                rt_hw_context_switch_interrupt
                0x0000000008000232                rt_hw_context_switch
                0x0000000008000252                PendSV_Handler
                0x000000000800028e                rt_hw_context_switch_to
                0x00000000080002ca                rt_hw_interrupt_thread_switch
                0x00000000080002ce                HardFault_Handler
                0x0000000008000304                rt_hw_interrupt_check
 *(.text.*)
 .text.main     0x0000000008000324       0x60 build/applications/main.o
                0x0000000008000324                main
 .text.SystemClock_Config
                0x0000000008000384       0x98 build/board/board.o
                0x0000000008000384                SystemClock_Config
 .text.HAL_MspInit
                0x000000000800041c       0x64 build/board/CubeMX_Config/Src/stm32f1xx_hal_msp.o
                0x000000000800041c                HAL_MspInit
 .text.HAL_UART_MspInit
                0x0000000008000480       0x98 build/board/CubeMX_Config/Src/stm32f1xx_hal_msp.o
                0x0000000008000480                HAL_UART_MspInit
 .text.Reset_Handler
                0x0000000008000518       0x44 /home/ldq/rk-linux/rt-thread/bsp/stm32/libraries/STM32F1xx_HAL/CMSIS/Device/ST/STM32F1xx/Source/Templates/gcc/startup_stm32f103xe.o
                0x0000000008000518                Reset_Handler
 .text.Default_Handler
                0x000000000800055c        0x2 /home/ldq/rk-linux/rt-thread/bsp/stm32/libraries/STM32F1xx_HAL/CMSIS/Device/ST/STM32F1xx/Source/Templates/gcc/startup_stm32f103xe.o
                0x000000000800055c                RTC_Alarm_IRQHandler
                0x000000000800055c                TIM8_TRG_COM_IRQHandler
                0x000000000800055c                TIM8_CC_IRQHandler
                0x000000000800055c                DebugMon_Handler
                0x000000000800055c                TIM1_CC_IRQHandler
                0x000000000800055c                TIM6_IRQHandler
                0x000000000800055c                PVD_IRQHandler
                0x000000000800055c                SDIO_IRQHandler
                0x000000000800055c                NMI_Handler
                0x000000000800055c                I2C2_EV_IRQHandler
                0x000000000800055c                UsageFault_Handler
                0x000000000800055c                ADC1_2_IRQHandler
                0x000000000800055c                SPI1_IRQHandler
                0x000000000800055c                TAMPER_IRQHandler
                0x000000000800055c                TIM8_UP_IRQHandler
                0x000000000800055c                DMA2_Channel2_IRQHandler
                0x000000000800055c                DMA1_Channel4_IRQHandler
                0x000000000800055c                USART3_IRQHandler
                0x000000000800055c                RTC_IRQHandler
                0x000000000800055c                DMA1_Channel7_IRQHandler
                0x000000000800055c                CAN1_RX1_IRQHandler
                0x000000000800055c                UART5_IRQHandler
                0x000000000800055c                ADC3_IRQHandler
                0x000000000800055c                TIM4_IRQHandler
                0x000000000800055c                DMA2_Channel1_IRQHandler
                0x000000000800055c                I2C1_EV_IRQHandler
                0x000000000800055c                DMA1_Channel6_IRQHandler
                0x000000000800055c                UART4_IRQHandler
                0x000000000800055c                TIM3_IRQHandler
                0x000000000800055c                RCC_IRQHandler
                0x000000000800055c                TIM1_TRG_COM_IRQHandler
                0x000000000800055c                DMA1_Channel1_IRQHandler
                0x000000000800055c                Default_Handler
                0x000000000800055c                TIM7_IRQHandler
                0x000000000800055c                TIM5_IRQHandler
                0x000000000800055c                SPI2_IRQHandler
                0x000000000800055c                MemManage_Handler
                0x000000000800055c                SVC_Handler
                0x000000000800055c                USB_LP_CAN1_RX0_IRQHandler
                0x000000000800055c                USB_HP_CAN1_TX_IRQHandler
                0x000000000800055c                DMA1_Channel3_IRQHandler
                0x000000000800055c                FSMC_IRQHandler
                0x000000000800055c                TIM1_UP_IRQHandler
                0x000000000800055c                WWDG_IRQHandler
                0x000000000800055c                TIM2_IRQHandler
                0x000000000800055c                TIM1_BRK_IRQHandler
                0x000000000800055c                DMA2_Channel4_5_IRQHandler
                0x000000000800055c                USART2_IRQHandler
                0x000000000800055c                I2C2_ER_IRQHandler
                0x000000000800055c                DMA1_Channel2_IRQHandler
                0x000000000800055c                TIM8_BRK_IRQHandler
                0x000000000800055c                CAN1_SCE_IRQHandler
                0x000000000800055c                FLASH_IRQHandler
                0x000000000800055c                BusFault_Handler
                0x000000000800055c                SPI3_IRQHandler
                0x000000000800055c                I2C1_ER_IRQHandler
                0x000000000800055c                USBWakeUp_IRQHandler
                0x000000000800055c                DMA2_Channel3_IRQHandler
 *fill*         0x000000000800055e        0x2 00000000
 .text.rt_tick_get
                0x0000000008000560       0x14 build/kernel/src/clock.o
                0x0000000008000560                rt_tick_get
 .text.rt_tick_increase
                0x0000000008000574       0x44 build/kernel/src/clock.o
                0x0000000008000574                rt_tick_increase
 .text.rt_tick_from_millisecond
                0x00000000080005b8       0x78 build/kernel/src/clock.o
                0x00000000080005b8                rt_tick_from_millisecond
 .text.rti_start
                0x0000000008000630        0xe build/kernel/src/components.o
 .text.rti_board_start
                0x000000000800063e        0xe build/kernel/src/components.o
 .text.rti_board_end
                0x000000000800064c        0xe build/kernel/src/components.o
 .text.rti_end  0x000000000800065a        0xe build/kernel/src/components.o
 .text.rt_components_board_init
                0x0000000008000668       0x30 build/kernel/src/components.o
                0x0000000008000668                rt_components_board_init
 .text.rt_components_init
                0x0000000008000698       0x30 build/kernel/src/components.o
                0x0000000008000698                rt_components_init
 .text.entry    0x00000000080006c8        0xe build/kernel/src/components.o
                0x00000000080006c8                entry
 .text.main_thread_entry
                0x00000000080006d6       0x18 build/kernel/src/components.o
                0x00000000080006d6                main_thread_entry
 *fill*         0x00000000080006ee        0x2 00000000
 .text.rt_application_init
                0x00000000080006f0       0x4c build/kernel/src/components.o
                0x00000000080006f0                rt_application_init
 .text.rtthread_startup
                0x000000000800073c       0x2e build/kernel/src/components.o
                0x000000000800073c                rtthread_startup
 .text.rt_device_register
                0x000000000800076a       0x54 build/kernel/src/device.o
                0x000000000800076a                rt_device_register
 *fill*         0x00000000080007be        0x2 00000000
 .text.rt_device_find
                0x00000000080007c0       0x90 build/kernel/src/device.o
                0x00000000080007c0                rt_device_find
 .text.rt_device_open
                0x0000000008000850      0x11c build/kernel/src/device.o
                0x0000000008000850                rt_device_open
 .text.rt_device_close
                0x000000000800096c       0x9c build/kernel/src/device.o
                0x000000000800096c                rt_device_close
 .text.rt_device_read
                0x0000000008000a08       0x88 build/kernel/src/device.o
                0x0000000008000a08                rt_device_read
 .text.rt_device_write
                0x0000000008000a90       0x88 build/kernel/src/device.o
                0x0000000008000a90                rt_device_write
 .text.rt_device_set_rx_indicate
                0x0000000008000b18       0x54 build/kernel/src/device.o
                0x0000000008000b18                rt_device_set_rx_indicate
 .text.rt_list_remove
                0x0000000008000b6c       0x34 build/kernel/src/idle.o
 .text._has_defunct_thread
                0x0000000008000ba0       0x28 build/kernel/src/idle.o
 .text.rt_thread_idle_excute
                0x0000000008000bc8       0xc8 build/kernel/src/idle.o
                0x0000000008000bc8                rt_thread_idle_excute
 .text.rt_thread_idle_entry
                0x0000000008000c90       0x3c build/kernel/src/idle.o
 .text.rt_thread_idle_init
                0x0000000008000ccc       0x74 build/kernel/src/idle.o
                0x0000000008000ccc                rt_thread_idle_init
 .text.rt_list_init
                0x0000000008000d40       0x20 build/kernel/src/ipc.o
 .text.rt_list_insert_before
                0x0000000008000d60       0x30 build/kernel/src/ipc.o
 .text.rt_list_isempty
                0x0000000008000d90       0x22 build/kernel/src/ipc.o
 .text.rt_ipc_object_init
                0x0000000008000db2       0x1c build/kernel/src/ipc.o
 .text.rt_ipc_list_suspend
                0x0000000008000dce       0x8e build/kernel/src/ipc.o
 .text.rt_ipc_list_resume
                0x0000000008000e5c       0x20 build/kernel/src/ipc.o
 .text.rt_sem_init
                0x0000000008000e7c       0x68 build/kernel/src/ipc.o
                0x0000000008000e7c                rt_sem_init
 .text.rt_sem_take
                0x0000000008000ee4      0x160 build/kernel/src/ipc.o
                0x0000000008000ee4                rt_sem_take
 .text.rt_sem_release
                0x0000000008001044       0xa0 build/kernel/src/ipc.o
                0x0000000008001044                rt_sem_release
 .text.rt_interrupt_enter
                0x00000000080010e4       0x40 build/kernel/src/irq.o
                0x00000000080010e4                rt_interrupt_enter
 .text.rt_interrupt_leave
                0x0000000008001124       0x40 build/kernel/src/irq.o
                0x0000000008001124                rt_interrupt_leave
 .text.rt_interrupt_get_nest
                0x0000000008001164       0x28 build/kernel/src/irq.o
                0x0000000008001164                rt_interrupt_get_nest
 .text.rt_set_errno
                0x000000000800118c       0x40 build/kernel/src/kservice.o
                0x000000000800118c                rt_set_errno
 .text.rt_memset
                0x00000000080011cc       0xb4 build/kernel/src/kservice.o
                0x00000000080011cc                memset
                0x00000000080011cc                rt_memset
 .text.rt_memcpy
                0x0000000008001280       0xd0 build/kernel/src/kservice.o
                0x0000000008001280                memcpy
                0x0000000008001280                rt_memcpy
 .text.rt_memmove
                0x0000000008001350       0x80 build/kernel/src/kservice.o
                0x0000000008001350                memmove
                0x0000000008001350                rt_memmove
 .text.rt_memcmp
                0x00000000080013d0       0x56 build/kernel/src/kservice.o
                0x00000000080013d0                memcmp
                0x00000000080013d0                rt_memcmp
 .text.rt_strncpy
                0x0000000008001426       0x62 build/kernel/src/kservice.o
                0x0000000008001426                rt_strncpy
 .text.rt_strncmp
                0x0000000008001488       0x4a build/kernel/src/kservice.o
                0x0000000008001488                rt_strncmp
 .text.rt_strlen
                0x00000000080014d2       0x2c build/kernel/src/kservice.o
                0x00000000080014d2                rt_strlen
                0x00000000080014d2                strlen
 *fill*         0x00000000080014fe        0x2 00000000
 .text.rt_show_version
                0x0000000008001500       0x44 build/kernel/src/kservice.o
                0x0000000008001500                rt_show_version
 .text.divide   0x0000000008001544       0x68 build/kernel/src/kservice.o
 .text.skip_atoi
                0x00000000080015ac       0x40 build/kernel/src/kservice.o
 .text.print_number
                0x00000000080015ec      0x1dc build/kernel/src/kservice.o
 .text.rt_vsnprintf
                0x00000000080017c8      0x548 build/kernel/src/kservice.o
                0x00000000080017c8                rt_vsnprintf
 .text.rt_vsprintf
                0x0000000008001d10       0x24 build/kernel/src/kservice.o
                0x0000000008001d10                vsprintf
                0x0000000008001d10                rt_vsprintf
 .text.rt_sprintf
                0x0000000008001d34       0x2c build/kernel/src/kservice.o
                0x0000000008001d34                rt_sprintf
                0x0000000008001d34                sprintf
 .text.rt_console_get_device
                0x0000000008001d60       0x14 build/kernel/src/kservice.o
                0x0000000008001d60                rt_console_get_device
 .text.rt_console_set_device
                0x0000000008001d74       0x4c build/kernel/src/kservice.o
                0x0000000008001d74                rt_console_set_device
 .text.rt_hw_console_output
                0x0000000008001dc0       0x12 build/kernel/src/kservice.o
                0x0000000008001dc0                rt_hw_console_output
 *fill*         0x0000000008001dd2        0x2 00000000
 .text.rt_kprintf
                0x0000000008001dd4       0x80 build/kernel/src/kservice.o
                0x0000000008001dd4                rt_kprintf
 .text.rt_assert_handler
                0x0000000008001e54       0x4c build/kernel/src/kservice.o
                0x0000000008001e54                rt_assert_handler
 .text.plug_holes
                0x0000000008001ea0      0x104 build/kernel/src/mem.o
 .text.rt_system_heap_init
                0x0000000008001fa4      0x118 build/kernel/src/mem.o
                0x0000000008001fa4                rt_system_heap_init
 .text.rt_malloc
                0x00000000080020bc      0x290 build/kernel/src/mem.o
                0x00000000080020bc                rt_malloc
 .text.rt_calloc
                0x000000000800234c       0x3c build/kernel/src/mem.o
                0x000000000800234c                rt_calloc
 .text.rt_free  0x0000000008002388      0x188 build/kernel/src/mem.o
                0x0000000008002388                rt_free
 .text.list_mem
                0x0000000008002510       0x44 build/kernel/src/mem.o
                0x0000000008002510                list_mem
 .text.rt_list_insert_after
                0x0000000008002554       0x30 build/kernel/src/object.o
 .text.rt_list_remove
                0x0000000008002584       0x34 build/kernel/src/object.o
 .text.rt_object_get_information
                0x00000000080025b8       0x48 build/kernel/src/object.o
                0x00000000080025b8                rt_object_get_information
 .text.rt_object_init
                0x0000000008002600       0xc8 build/kernel/src/object.o
                0x0000000008002600                rt_object_init
 .text.rt_object_detach
                0x00000000080026c8       0x5c build/kernel/src/object.o
                0x00000000080026c8                rt_object_detach
 .text.rt_object_allocate
                0x0000000008002724       0xd8 build/kernel/src/object.o
                0x0000000008002724                rt_object_allocate
 .text.rt_object_delete
                0x00000000080027fc       0x7c build/kernel/src/object.o
                0x00000000080027fc                rt_object_delete
 .text.rt_object_is_systemobject
                0x0000000008002878       0x3c build/kernel/src/object.o
                0x0000000008002878                rt_object_is_systemobject
 .text.rt_object_get_type
                0x00000000080028b4       0x34 build/kernel/src/object.o
                0x00000000080028b4                rt_object_get_type
 .text.rt_list_init
                0x00000000080028e8       0x20 build/kernel/src/scheduler.o
 .text.rt_list_insert_before
                0x0000000008002908       0x30 build/kernel/src/scheduler.o
 .text.rt_list_remove
                0x0000000008002938       0x34 build/kernel/src/scheduler.o
 .text.rt_list_isempty
                0x000000000800296c       0x22 build/kernel/src/scheduler.o
 *fill*         0x000000000800298e        0x2 00000000
 .text._rt_scheduler_stack_check
                0x0000000008002990       0x98 build/kernel/src/scheduler.o
 .text._get_highest_priority_thread
                0x0000000008002a28       0x38 build/kernel/src/scheduler.o
 .text.rt_system_scheduler_init
                0x0000000008002a60       0x40 build/kernel/src/scheduler.o
                0x0000000008002a60                rt_system_scheduler_init
 .text.rt_system_scheduler_start
                0x0000000008002aa0       0x38 build/kernel/src/scheduler.o
                0x0000000008002aa0                rt_system_scheduler_start
 .text.rt_schedule
                0x0000000008002ad8      0x14c build/kernel/src/scheduler.o
                0x0000000008002ad8                rt_schedule
 .text.rt_schedule_insert_thread
                0x0000000008002c24       0xac build/kernel/src/scheduler.o
                0x0000000008002c24                rt_schedule_insert_thread
 .text.rt_schedule_remove_thread
                0x0000000008002cd0       0x70 build/kernel/src/scheduler.o
                0x0000000008002cd0                rt_schedule_remove_thread
 .text.rt_enter_critical
                0x0000000008002d40       0x2c build/kernel/src/scheduler.o
                0x0000000008002d40                rt_enter_critical
 .text.rt_exit_critical
                0x0000000008002d6c       0x54 build/kernel/src/scheduler.o
                0x0000000008002d6c                rt_exit_critical
 .text.rt_list_init
                0x0000000008002dc0       0x20 build/kernel/src/thread.o
 .text.rt_list_insert_after
                0x0000000008002de0       0x30 build/kernel/src/thread.o
 .text.rt_list_remove
                0x0000000008002e10       0x34 build/kernel/src/thread.o
 .text.rt_thread_exit
                0x0000000008002e44       0x68 build/kernel/src/thread.o
                0x0000000008002e44                rt_thread_exit
 .text._rt_thread_init
                0x0000000008002eac       0xf8 build/kernel/src/thread.o
 .text.rt_thread_init
                0x0000000008002fa4       0x6c build/kernel/src/thread.o
                0x0000000008002fa4                rt_thread_init
 .text.rt_thread_self
                0x0000000008003010       0x14 build/kernel/src/thread.o
                0x0000000008003010                rt_thread_self
 .text.rt_thread_startup
                0x0000000008003024       0xa0 build/kernel/src/thread.o
                0x0000000008003024                rt_thread_startup
 .text.rt_thread_create
                0x00000000080030c4       0x62 build/kernel/src/thread.o
                0x00000000080030c4                rt_thread_create
 .text.rt_thread_yield
                0x0000000008003126        0xe build/kernel/src/thread.o
                0x0000000008003126                rt_thread_yield
 .text.rt_thread_sleep
                0x0000000008003134       0x8c build/kernel/src/thread.o
                0x0000000008003134                rt_thread_sleep
 .text.rt_thread_mdelay
                0x00000000080031c0       0x20 build/kernel/src/thread.o
                0x00000000080031c0                rt_thread_mdelay
 .text.rt_thread_suspend
                0x00000000080031e0       0xcc build/kernel/src/thread.o
                0x00000000080031e0                rt_thread_suspend
 .text.rt_thread_resume
                0x00000000080032ac       0x98 build/kernel/src/thread.o
                0x00000000080032ac                rt_thread_resume
 .text.rt_thread_timeout
                0x0000000008003344       0x84 build/kernel/src/thread.o
                0x0000000008003344                rt_thread_timeout
 .text.rt_list_init
                0x00000000080033c8       0x20 build/kernel/src/timer.o
 .text.rt_list_insert_after
                0x00000000080033e8       0x30 build/kernel/src/timer.o
 .text.rt_list_remove
                0x0000000008003418       0x34 build/kernel/src/timer.o
 .text.rt_list_isempty
                0x000000000800344c       0x22 build/kernel/src/timer.o
 .text._rt_timer_init
                0x000000000800346e       0x68 build/kernel/src/timer.o
 .text._rt_timer_remove
                0x00000000080034d6       0x34 build/kernel/src/timer.o
 *fill*         0x000000000800350a        0x2 00000000
 .text.rt_timer_init
                0x000000000800350c       0x48 build/kernel/src/timer.o
                0x000000000800350c                rt_timer_init
 .text.rt_timer_detach
                0x0000000008003554       0x7c build/kernel/src/timer.o
                0x0000000008003554                rt_timer_detach
 .text.rt_timer_start
                0x00000000080035d0      0x1fc build/kernel/src/timer.o
                0x00000000080035d0                rt_timer_start
 .text.rt_timer_stop
                0x00000000080037cc       0x94 build/kernel/src/timer.o
                0x00000000080037cc                rt_timer_stop
 .text.rt_timer_control
                0x0000000008003860       0xa0 build/kernel/src/timer.o
                0x0000000008003860                rt_timer_control
 .text.rt_timer_check
                0x0000000008003900       0xcc build/kernel/src/timer.o
                0x0000000008003900                rt_timer_check
 .text.rt_system_timer_init
                0x00000000080039cc       0x34 build/kernel/src/timer.o
                0x00000000080039cc                rt_system_timer_init
 .text.rt_system_timer_thread_init
                0x0000000008003a00        0xc build/kernel/src/timer.o
                0x0000000008003a00                rt_system_timer_thread_init
 .text.rt_hw_stack_init
                0x0000000008003a0c       0x88 build/kernel/libcpu/arm/cortex-m3/cpuport.o
                0x0000000008003a0c                rt_hw_stack_init
 .text.usage_fault_track
                0x0000000008003a94       0xc4 build/kernel/libcpu/arm/cortex-m3/cpuport.o
 .text.bus_fault_track
                0x0000000008003b58       0xcc build/kernel/libcpu/arm/cortex-m3/cpuport.o
 .text.mem_manage_fault_track
                0x0000000008003c24       0xb4 build/kernel/libcpu/arm/cortex-m3/cpuport.o
 .text.hard_fault_track
                0x0000000008003cd8       0x78 build/kernel/libcpu/arm/cortex-m3/cpuport.o
 .text.rt_hw_hard_fault_exception
                0x0000000008003d50      0x168 build/kernel/libcpu/arm/cortex-m3/cpuport.o
                0x0000000008003d50                rt_hw_hard_fault_exception
 .text.rt_hw_cpu_reset
                0x0000000008003eb8       0x1c build/kernel/libcpu/arm/cortex-m3/cpuport.o
                0x0000000008003eb8                rt_hw_cpu_reset
 .text.__rt_ffs
                0x0000000008003ed4       0x28 build/kernel/libcpu/arm/cortex-m3/cpuport.o
                0x0000000008003ed4                __rt_ffs
 .text._pin_read
                0x0000000008003efc       0x60 build/kernel/components/drivers/misc/pin.o
 .text._pin_write
                0x0000000008003f5c       0x5c build/kernel/components/drivers/misc/pin.o
 .text._pin_control
                0x0000000008003fb8       0x58 build/kernel/components/drivers/misc/pin.o
 .text.rt_device_pin_register
                0x0000000008004010       0x74 build/kernel/components/drivers/misc/pin.o
                0x0000000008004010                rt_device_pin_register
 .text.rt_pin_mode
                0x0000000008004084       0x40 build/kernel/components/drivers/misc/pin.o
                0x0000000008004084                rt_pin_mode
 .text.rt_pin_write
                0x00000000080040c4       0x40 build/kernel/components/drivers/misc/pin.o
                0x00000000080040c4                rt_pin_write
 .text.rt_pin_read
                0x0000000008004104       0x3c build/kernel/components/drivers/misc/pin.o
                0x0000000008004104                rt_pin_read
 .text._serial_poll_rx
                0x0000000008004140       0x74 build/kernel/components/drivers/serial/serial.o
 .text._serial_poll_tx
                0x00000000080041b4       0x7c build/kernel/components/drivers/serial/serial.o
 .text._serial_int_rx
                0x0000000008004230       0xd8 build/kernel/components/drivers/serial/serial.o
 .text._serial_int_tx
                0x0000000008004308       0x90 build/kernel/components/drivers/serial/serial.o
 .text._serial_fifo_calc_recved_len
                0x0000000008004398       0x88 build/kernel/components/drivers/serial/serial.o
 .text.rt_dma_calc_recved_len
                0x0000000008004420       0x18 build/kernel/components/drivers/serial/serial.o
 .text.rt_dma_recv_update_get_index
                0x0000000008004438       0xa4 build/kernel/components/drivers/serial/serial.o
 .text.rt_dma_recv_update_put_index
                0x00000000080044dc      0x10c build/kernel/components/drivers/serial/serial.o
 .text._serial_dma_rx
                0x00000000080045e8      0x198 build/kernel/components/drivers/serial/serial.o
 .text._serial_dma_tx
                0x0000000008004780       0x70 build/kernel/components/drivers/serial/serial.o
 .text.rt_serial_init
                0x00000000080047f0       0x5c build/kernel/components/drivers/serial/serial.o
 .text.rt_serial_open
                0x000000000800484c      0x36c build/kernel/components/drivers/serial/serial.o
 .text.rt_serial_close
                0x0000000008004bb8      0x1a8 build/kernel/components/drivers/serial/serial.o
 .text.rt_serial_read
                0x0000000008004d60       0x84 build/kernel/components/drivers/serial/serial.o
 .text.rt_serial_write
                0x0000000008004de4       0x84 build/kernel/components/drivers/serial/serial.o
 .text.rt_serial_control
                0x0000000008004e68       0xd0 build/kernel/components/drivers/serial/serial.o
 .text.rt_hw_serial_register
                0x0000000008004f38       0x9c build/kernel/components/drivers/serial/serial.o
                0x0000000008004f38                rt_hw_serial_register
 .text.rt_hw_serial_isr
                0x0000000008004fd4      0x260 build/kernel/components/drivers/serial/serial.o
                0x0000000008004fd4                rt_hw_serial_isr
 .text.rt_list_init
                0x0000000008005234       0x20 build/kernel/components/drivers/src/completion.o
 .text.rt_list_insert_before
                0x0000000008005254       0x30 build/kernel/components/drivers/src/completion.o
 .text.rt_list_isempty
                0x0000000008005284       0x22 build/kernel/components/drivers/src/completion.o
 *fill*         0x00000000080052a6        0x2 00000000
 .text.rt_completion_init
                0x00000000080052a8       0x44 build/kernel/components/drivers/src/completion.o
                0x00000000080052a8                rt_completion_init
 .text.rt_completion_wait
                0x00000000080052ec       0xfc build/kernel/components/drivers/src/completion.o
                0x00000000080052ec                rt_completion_wait
 .text.rt_completion_done
                0x00000000080053e8       0x70 build/kernel/components/drivers/src/completion.o
                0x00000000080053e8                rt_completion_done
 .text.rt_list_init
                0x0000000008005458       0x20 build/kernel/components/drivers/src/dataqueue.o
 .text.rt_list_insert_before
                0x0000000008005478       0x30 build/kernel/components/drivers/src/dataqueue.o
 .text.rt_list_isempty
                0x00000000080054a8       0x22 build/kernel/components/drivers/src/dataqueue.o
 *fill*         0x00000000080054ca        0x2 00000000
 .text.rt_data_queue_init
                0x00000000080054cc       0x84 build/kernel/components/drivers/src/dataqueue.o
                0x00000000080054cc                rt_data_queue_init
 .text.rt_data_queue_push
                0x0000000008005550      0x194 build/kernel/components/drivers/src/dataqueue.o
                0x0000000008005550                rt_data_queue_push
 .text.rt_data_queue_pop
                0x00000000080056e4      0x1e8 build/kernel/components/drivers/src/dataqueue.o
                0x00000000080056e4                rt_data_queue_pop
 .text.rt_data_queue_peak
                0x00000000080058cc       0x9c build/kernel/components/drivers/src/dataqueue.o
                0x00000000080058cc                rt_data_queue_peak
 .text.finsh_get_prompt
                0x0000000008005968       0xa0 build/kernel/components/finsh/shell.o
                0x0000000008005968                finsh_get_prompt
 .text.finsh_set_prompt_mode
                0x0000000008005a08       0x48 build/kernel/components/finsh/shell.o
                0x0000000008005a08                finsh_set_prompt_mode
 .text.finsh_getchar
                0x0000000008005a50       0x5c build/kernel/components/finsh/shell.o
 .text.finsh_rx_ind
                0x0000000008005aac       0x3c build/kernel/components/finsh/shell.o
 .text.finsh_set_device
                0x0000000008005ae8       0xd8 build/kernel/components/finsh/shell.o
                0x0000000008005ae8                finsh_set_device
 .text.shell_auto_complete
                0x0000000008005bc0       0x40 build/kernel/components/finsh/shell.o
 .text.shell_handle_history
                0x0000000008005c00       0x34 build/kernel/components/finsh/shell.o
 .text.shell_push_history
                0x0000000008005c34      0x15e build/kernel/components/finsh/shell.o
 *fill*         0x0000000008005d92        0x2 00000000
 .text.finsh_thread_entry
                0x0000000008005d94      0x5d8 build/kernel/components/finsh/shell.o
                0x0000000008005d94                finsh_thread_entry
 .text.finsh_system_function_init
                0x000000000800636c       0x28 build/kernel/components/finsh/shell.o
                0x000000000800636c                finsh_system_function_init
 .text.finsh_system_var_init
                0x0000000008006394       0x28 build/kernel/components/finsh/shell.o
                0x0000000008006394                finsh_system_var_init
 .text.finsh_system_init
                0x00000000080063bc       0xac build/kernel/components/finsh/shell.o
                0x00000000080063bc                finsh_system_init
 .text.rt_list_isempty
                0x0000000008006468       0x22 build/kernel/components/finsh/cmd.o
 .text.rt_list_len
                0x000000000800648a       0x34 build/kernel/components/finsh/cmd.o
 *fill*         0x00000000080064be        0x2 00000000
 .text.hello    0x00000000080064c0       0x14 build/kernel/components/finsh/cmd.o
                0x00000000080064c0                hello
 .text.version  0x00000000080064d4        0xe build/kernel/components/finsh/cmd.o
                0x00000000080064d4                version
 *fill*         0x00000000080064e2        0x2 00000000
 .text.object_split
                0x00000000080064e4       0x28 build/kernel/components/finsh/cmd.o
 .text.list_find_init
                0x000000000800650c       0x46 build/kernel/components/finsh/cmd.o
 .text.list_get_next
                0x0000000008006552       0xc6 build/kernel/components/finsh/cmd.o
 .text.list_thread
                0x0000000008006618      0x208 build/kernel/components/finsh/cmd.o
                0x0000000008006618                list_thread
 .text.show_wait_queue
                0x0000000008006820       0x50 build/kernel/components/finsh/cmd.o
 .text.list_sem
                0x0000000008006870      0x12c build/kernel/components/finsh/cmd.o
                0x0000000008006870                list_sem
 .text.list_event
                0x000000000800699c      0x118 build/kernel/components/finsh/cmd.o
                0x000000000800699c                list_event
 .text.list_mutex
                0x0000000008006ab4       0xe8 build/kernel/components/finsh/cmd.o
                0x0000000008006ab4                list_mutex
 .text.list_mailbox
                0x0000000008006b9c      0x13c build/kernel/components/finsh/cmd.o
                0x0000000008006b9c                list_mailbox
 .text.list_msgqueue
                0x0000000008006cd8      0x12c build/kernel/components/finsh/cmd.o
                0x0000000008006cd8                list_msgqueue
 .text.list_mempool
                0x0000000008006e04      0x128 build/kernel/components/finsh/cmd.o
                0x0000000008006e04                list_mempool
 .text.list_timer
                0x0000000008006f2c      0x108 build/kernel/components/finsh/cmd.o
                0x0000000008006f2c                list_timer
 .text.list_device
                0x0000000008007034       0xf0 build/kernel/components/finsh/cmd.o
                0x0000000008007034                list_device
 .text.list     0x0000000008007124       0x6c build/kernel/components/finsh/cmd.o
                0x0000000008007124                list
 .text.msh_is_used
                0x0000000008007190        0xe build/kernel/components/finsh/msh.o
                0x0000000008007190                msh_is_used
 *fill*         0x000000000800719e        0x2 00000000
 .text.msh_help
                0x00000000080071a0       0x7c build/kernel/components/finsh/msh.o
                0x00000000080071a0                msh_help
 .text.msh_split
                0x000000000800721c      0x170 build/kernel/components/finsh/msh.o
 .text.msh_get_cmd
                0x000000000800738c       0x80 build/kernel/components/finsh/msh.o
 .text._msh_exec_cmd
                0x000000000800740c       0xd4 build/kernel/components/finsh/msh.o
 .text.msh_exec
                0x00000000080074e0       0x84 build/kernel/components/finsh/msh.o
                0x00000000080074e0                msh_exec
 .text.str_common
                0x0000000008007564       0x48 build/kernel/components/finsh/msh.o
 .text.msh_auto_complete
                0x00000000080075ac       0xd0 build/kernel/components/finsh/msh.o
                0x00000000080075ac                msh_auto_complete
 .text.cmd_ps   0x000000000800767c       0x18 build/kernel/components/finsh/msh_cmd.o
                0x000000000800767c                cmd_ps
 .text.cmd_time
                0x0000000008007694       0x16 build/kernel/components/finsh/msh_cmd.o
                0x0000000008007694                cmd_time
 .text.cmd_free
                0x00000000080076aa       0x18 build/kernel/components/finsh/msh_cmd.o
                0x00000000080076aa                cmd_free
 .text.malloc   0x00000000080076c2       0x18 build/kernel/components/libc/compilers/minilibc/stdlib.o
                0x00000000080076c2                malloc
 .text.strncpy  0x00000000080076da       0x20 build/kernel/components/libc/compilers/minilibc/string.o
                0x00000000080076da                strncpy
 .text.strncmp  0x00000000080076fa       0x4a build/kernel/components/libc/compilers/minilibc/string.o
                0x00000000080076fa                strncmp
 .text.SystemInit
                0x0000000008007744       0x68 /home/ldq/rk-linux/rt-thread/bsp/stm32/libraries/STM32F1xx_HAL/CMSIS/Device/ST/STM32F1xx/Source/Templates/system_stm32f1xx.o
                0x0000000008007744                SystemInit
 .text.HAL_DMA_Init
                0x00000000080077ac       0xec /home/ldq/rk-linux/rt-thread/bsp/stm32/libraries/STM32F1xx_HAL/STM32F1xx_HAL_Driver/Src/stm32f1xx_hal_dma.o
                0x00000000080077ac                HAL_DMA_Init
 .text.HAL_DMA_DeInit
                0x0000000008007898       0xf0 /home/ldq/rk-linux/rt-thread/bsp/stm32/libraries/STM32F1xx_HAL/STM32F1xx_HAL_Driver/Src/stm32f1xx_hal_dma.o
                0x0000000008007898                HAL_DMA_DeInit
 .text.HAL_DMA_Start_IT
                0x0000000008007988       0xbe /home/ldq/rk-linux/rt-thread/bsp/stm32/libraries/STM32F1xx_HAL/STM32F1xx_HAL_Driver/Src/stm32f1xx_hal_dma.o
                0x0000000008007988                HAL_DMA_Start_IT
 *fill*         0x0000000008007a46        0x2 00000000
 .text.HAL_DMA_Abort_IT
                0x0000000008007a48      0x210 /home/ldq/rk-linux/rt-thread/bsp/stm32/libraries/STM32F1xx_HAL/STM32F1xx_HAL_Driver/Src/stm32f1xx_hal_dma.o
                0x0000000008007a48                HAL_DMA_Abort_IT
 .text.HAL_DMA_IRQHandler
                0x0000000008007c58      0x478 /home/ldq/rk-linux/rt-thread/bsp/stm32/libraries/STM32F1xx_HAL/STM32F1xx_HAL_Driver/Src/stm32f1xx_hal_dma.o
                0x0000000008007c58                HAL_DMA_IRQHandler
 .text.DMA_SetConfig
                0x00000000080080d0       0x5a /home/ldq/rk-linux/rt-thread/bsp/stm32/libraries/STM32F1xx_HAL/STM32F1xx_HAL_Driver/Src/stm32f1xx_hal_dma.o
 *fill*         0x000000000800812a        0x2 00000000
 .text.NVIC_SetPriorityGrouping
                0x000000000800812c       0x48 /home/ldq/rk-linux/rt-thread/bsp/stm32/libraries/STM32F1xx_HAL/STM32F1xx_HAL_Driver/Src/stm32f1xx_hal_cortex.o
 .text.NVIC_GetPriorityGrouping
                0x0000000008008174       0x1c /home/ldq/rk-linux/rt-thread/bsp/stm32/libraries/STM32F1xx_HAL/STM32F1xx_HAL_Driver/Src/stm32f1xx_hal_cortex.o
 .text.NVIC_EnableIRQ
                0x0000000008008190       0x30 /home/ldq/rk-linux/rt-thread/bsp/stm32/libraries/STM32F1xx_HAL/STM32F1xx_HAL_Driver/Src/stm32f1xx_hal_cortex.o
 .text.NVIC_DisableIRQ
                0x00000000080081c0       0x34 /home/ldq/rk-linux/rt-thread/bsp/stm32/libraries/STM32F1xx_HAL/STM32F1xx_HAL_Driver/Src/stm32f1xx_hal_cortex.o
 .text.NVIC_SetPriority
                0x00000000080081f4       0x54 /home/ldq/rk-linux/rt-thread/bsp/stm32/libraries/STM32F1xx_HAL/STM32F1xx_HAL_Driver/Src/stm32f1xx_hal_cortex.o
 .text.NVIC_EncodePriority
                0x0000000008008248       0x64 /home/ldq/rk-linux/rt-thread/bsp/stm32/libraries/STM32F1xx_HAL/STM32F1xx_HAL_Driver/Src/stm32f1xx_hal_cortex.o
 .text.SysTick_Config
                0x00000000080082ac       0x44 /home/ldq/rk-linux/rt-thread/bsp/stm32/libraries/STM32F1xx_HAL/STM32F1xx_HAL_Driver/Src/stm32f1xx_hal_cortex.o
 .text.HAL_NVIC_SetPriorityGrouping
                0x00000000080082f0       0x16 /home/ldq/rk-linux/rt-thread/bsp/stm32/libraries/STM32F1xx_HAL/STM32F1xx_HAL_Driver/Src/stm32f1xx_hal_cortex.o
                0x00000000080082f0                HAL_NVIC_SetPriorityGrouping
 .text.HAL_NVIC_SetPriority
                0x0000000008008306       0x38 /home/ldq/rk-linux/rt-thread/bsp/stm32/libraries/STM32F1xx_HAL/STM32F1xx_HAL_Driver/Src/stm32f1xx_hal_cortex.o
                0x0000000008008306                HAL_NVIC_SetPriority
 .text.HAL_NVIC_EnableIRQ
                0x000000000800833e       0x1c /home/ldq/rk-linux/rt-thread/bsp/stm32/libraries/STM32F1xx_HAL/STM32F1xx_HAL_Driver/Src/stm32f1xx_hal_cortex.o
                0x000000000800833e                HAL_NVIC_EnableIRQ
 .text.HAL_NVIC_DisableIRQ
                0x000000000800835a       0x1c /home/ldq/rk-linux/rt-thread/bsp/stm32/libraries/STM32F1xx_HAL/STM32F1xx_HAL_Driver/Src/stm32f1xx_hal_cortex.o
                0x000000000800835a                HAL_NVIC_DisableIRQ
 .text.HAL_SYSTICK_Config
                0x0000000008008376       0x18 /home/ldq/rk-linux/rt-thread/bsp/stm32/libraries/STM32F1xx_HAL/STM32F1xx_HAL_Driver/Src/stm32f1xx_hal_cortex.o
                0x0000000008008376                HAL_SYSTICK_Config
 *fill*         0x000000000800838e        0x2 00000000
 .text.HAL_SYSTICK_CLKSourceConfig
                0x0000000008008390       0x38 /home/ldq/rk-linux/rt-thread/bsp/stm32/libraries/STM32F1xx_HAL/STM32F1xx_HAL_Driver/Src/stm32f1xx_hal_cortex.o
                0x0000000008008390                HAL_SYSTICK_CLKSourceConfig
 .text.HAL_RCC_OscConfig
                0x00000000080083c8      0x4c8 /home/ldq/rk-linux/rt-thread/bsp/stm32/libraries/STM32F1xx_HAL/STM32F1xx_HAL_Driver/Src/stm32f1xx_hal_rcc.o
                0x00000000080083c8                HAL_RCC_OscConfig
 .text.HAL_RCC_ClockConfig
                0x0000000008008890      0x218 /home/ldq/rk-linux/rt-thread/bsp/stm32/libraries/STM32F1xx_HAL/STM32F1xx_HAL_Driver/Src/stm32f1xx_hal_rcc.o
                0x0000000008008890                HAL_RCC_ClockConfig
 .text.HAL_RCC_GetSysClockFreq
                0x0000000008008aa8       0xc4 /home/ldq/rk-linux/rt-thread/bsp/stm32/libraries/STM32F1xx_HAL/STM32F1xx_HAL_Driver/Src/stm32f1xx_hal_rcc.o
                0x0000000008008aa8                HAL_RCC_GetSysClockFreq
 .text.HAL_RCC_GetHCLKFreq
                0x0000000008008b6c       0x14 /home/ldq/rk-linux/rt-thread/bsp/stm32/libraries/STM32F1xx_HAL/STM32F1xx_HAL_Driver/Src/stm32f1xx_hal_rcc.o
                0x0000000008008b6c                HAL_RCC_GetHCLKFreq
 .text.HAL_RCC_GetPCLK1Freq
                0x0000000008008b80       0x28 /home/ldq/rk-linux/rt-thread/bsp/stm32/libraries/STM32F1xx_HAL/STM32F1xx_HAL_Driver/Src/stm32f1xx_hal_rcc.o
                0x0000000008008b80                HAL_RCC_GetPCLK1Freq
 .text.HAL_RCC_GetPCLK2Freq
                0x0000000008008ba8       0x28 /home/ldq/rk-linux/rt-thread/bsp/stm32/libraries/STM32F1xx_HAL/STM32F1xx_HAL_Driver/Src/stm32f1xx_hal_rcc.o
                0x0000000008008ba8                HAL_RCC_GetPCLK2Freq
 .text.RCC_Delay
                0x0000000008008bd0       0x3c /home/ldq/rk-linux/rt-thread/bsp/stm32/libraries/STM32F1xx_HAL/STM32F1xx_HAL_Driver/Src/stm32f1xx_hal_rcc.o
 .text.HAL_Init
                0x0000000008008c0c       0x2c /home/ldq/rk-linux/rt-thread/bsp/stm32/libraries/STM32F1xx_HAL/STM32F1xx_HAL_Driver/Src/stm32f1xx_hal.o
                0x0000000008008c0c                HAL_Init
 .text.HAL_IncTick
                0x0000000008008c38       0x24 /home/ldq/rk-linux/rt-thread/bsp/stm32/libraries/STM32F1xx_HAL/STM32F1xx_HAL_Driver/Src/stm32f1xx_hal.o
                0x0000000008008c38                HAL_IncTick
 .text.HAL_GPIO_Init
                0x0000000008008c5c      0x2dc /home/ldq/rk-linux/rt-thread/bsp/stm32/libraries/STM32F1xx_HAL/STM32F1xx_HAL_Driver/Src/stm32f1xx_hal_gpio.o
                0x0000000008008c5c                HAL_GPIO_Init
 .text.HAL_GPIO_DeInit
                0x0000000008008f38      0x1a4 /home/ldq/rk-linux/rt-thread/bsp/stm32/libraries/STM32F1xx_HAL/STM32F1xx_HAL_Driver/Src/stm32f1xx_hal_gpio.o
                0x0000000008008f38                HAL_GPIO_DeInit
 .text.HAL_GPIO_ReadPin
                0x00000000080090dc       0x2e /home/ldq/rk-linux/rt-thread/bsp/stm32/libraries/STM32F1xx_HAL/STM32F1xx_HAL_Driver/Src/stm32f1xx_hal_gpio.o
                0x00000000080090dc                HAL_GPIO_ReadPin
 .text.HAL_GPIO_WritePin
                0x000000000800910a       0x30 /home/ldq/rk-linux/rt-thread/bsp/stm32/libraries/STM32F1xx_HAL/STM32F1xx_HAL_Driver/Src/stm32f1xx_hal_gpio.o
                0x000000000800910a                HAL_GPIO_WritePin
 *fill*         0x000000000800913a        0x2 00000000
 .text.HAL_GPIO_EXTI_IRQHandler
                0x000000000800913c       0x30 /home/ldq/rk-linux/rt-thread/bsp/stm32/libraries/STM32F1xx_HAL/STM32F1xx_HAL_Driver/Src/stm32f1xx_hal_gpio.o
                0x000000000800913c                HAL_GPIO_EXTI_IRQHandler
 .text.HAL_UART_Init
                0x000000000800916c       0x9a /home/ldq/rk-linux/rt-thread/bsp/stm32/libraries/STM32F1xx_HAL/STM32F1xx_HAL_Driver/Src/stm32f1xx_hal_uart.o
                0x000000000800916c                HAL_UART_Init
 *fill*         0x0000000008009206        0x2 00000000
 .text.HAL_UART_Transmit_DMA
                0x0000000008009208       0xd8 /home/ldq/rk-linux/rt-thread/bsp/stm32/libraries/STM32F1xx_HAL/STM32F1xx_HAL_Driver/Src/stm32f1xx_hal_uart.o
                0x0000000008009208                HAL_UART_Transmit_DMA
 .text.HAL_UART_Receive_DMA
                0x00000000080092e0      0x100 /home/ldq/rk-linux/rt-thread/bsp/stm32/libraries/STM32F1xx_HAL/STM32F1xx_HAL_Driver/Src/stm32f1xx_hal_uart.o
                0x00000000080092e0                HAL_UART_Receive_DMA
 .text.HAL_UART_IRQHandler
                0x00000000080093e0      0x1f8 /home/ldq/rk-linux/rt-thread/bsp/stm32/libraries/STM32F1xx_HAL/STM32F1xx_HAL_Driver/Src/stm32f1xx_hal_uart.o
                0x00000000080093e0                HAL_UART_IRQHandler
 .text.HAL_UART_TxHalfCpltCallback
                0x00000000080095d8       0x12 /home/ldq/rk-linux/rt-thread/bsp/stm32/libraries/STM32F1xx_HAL/STM32F1xx_HAL_Driver/Src/stm32f1xx_hal_uart.o
                0x00000000080095d8                HAL_UART_TxHalfCpltCallback
 .text.UART_DMATransmitCplt
                0x00000000080095ea       0x52 /home/ldq/rk-linux/rt-thread/bsp/stm32/libraries/STM32F1xx_HAL/STM32F1xx_HAL_Driver/Src/stm32f1xx_hal_uart.o
 .text.UART_DMATxHalfCplt
                0x000000000800963c       0x1c /home/ldq/rk-linux/rt-thread/bsp/stm32/libraries/STM32F1xx_HAL/STM32F1xx_HAL_Driver/Src/stm32f1xx_hal_uart.o
 .text.UART_DMAReceiveCplt
                0x0000000008009658       0x68 /home/ldq/rk-linux/rt-thread/bsp/stm32/libraries/STM32F1xx_HAL/STM32F1xx_HAL_Driver/Src/stm32f1xx_hal_uart.o
 .text.UART_DMARxHalfCplt
                0x00000000080096c0       0x1c /home/ldq/rk-linux/rt-thread/bsp/stm32/libraries/STM32F1xx_HAL/STM32F1xx_HAL_Driver/Src/stm32f1xx_hal_uart.o
 .text.UART_DMAError
                0x00000000080096dc       0x94 /home/ldq/rk-linux/rt-thread/bsp/stm32/libraries/STM32F1xx_HAL/STM32F1xx_HAL_Driver/Src/stm32f1xx_hal_uart.o
 .text.UART_EndTxTransfer
                0x0000000008009770       0x2a /home/ldq/rk-linux/rt-thread/bsp/stm32/libraries/STM32F1xx_HAL/STM32F1xx_HAL_Driver/Src/stm32f1xx_hal_uart.o
 .text.UART_EndRxTransfer
                0x000000000800979a       0x3a /home/ldq/rk-linux/rt-thread/bsp/stm32/libraries/STM32F1xx_HAL/STM32F1xx_HAL_Driver/Src/stm32f1xx_hal_uart.o
 .text.UART_DMAAbortOnError
                0x00000000080097d4       0x28 /home/ldq/rk-linux/rt-thread/bsp/stm32/libraries/STM32F1xx_HAL/STM32F1xx_HAL_Driver/Src/stm32f1xx_hal_uart.o
 .text.UART_Transmit_IT
                0x00000000080097fc       0xaa /home/ldq/rk-linux/rt-thread/bsp/stm32/libraries/STM32F1xx_HAL/STM32F1xx_HAL_Driver/Src/stm32f1xx_hal_uart.o
 .text.UART_EndTransmit_IT
                0x00000000080098a6       0x30 /home/ldq/rk-linux/rt-thread/bsp/stm32/libraries/STM32F1xx_HAL/STM32F1xx_HAL_Driver/Src/stm32f1xx_hal_uart.o
 .text.UART_Receive_IT
                0x00000000080098d6      0x102 /home/ldq/rk-linux/rt-thread/bsp/stm32/libraries/STM32F1xx_HAL/STM32F1xx_HAL_Driver/Src/stm32f1xx_hal_uart.o
 .text.UART_SetConfig
                0x00000000080099d8      0x230 /home/ldq/rk-linux/rt-thread/bsp/stm32/libraries/STM32F1xx_HAL/STM32F1xx_HAL_Driver/Src/stm32f1xx_hal_uart.o
 .text.get_pin  0x0000000008009c08       0x44 /home/ldq/rk-linux/rt-thread/bsp/stm32/libraries/HAL_Drivers/drv_gpio.o
 .text.stm32_pin_write
                0x0000000008009c4c       0x3c /home/ldq/rk-linux/rt-thread/bsp/stm32/libraries/HAL_Drivers/drv_gpio.o
 .text.stm32_pin_read
                0x0000000008009c88       0x44 /home/ldq/rk-linux/rt-thread/bsp/stm32/libraries/HAL_Drivers/drv_gpio.o
 .text.stm32_pin_mode
                0x0000000008009ccc       0x98 /home/ldq/rk-linux/rt-thread/bsp/stm32/libraries/HAL_Drivers/drv_gpio.o
 .text.bit2bitno
                0x0000000008009d64       0x3c /home/ldq/rk-linux/rt-thread/bsp/stm32/libraries/HAL_Drivers/drv_gpio.o
 .text.get_pin_irq_map
                0x0000000008009da0       0x34 /home/ldq/rk-linux/rt-thread/bsp/stm32/libraries/HAL_Drivers/drv_gpio.o
 .text.stm32_pin_attach_irq
                0x0000000008009dd4      0x148 /home/ldq/rk-linux/rt-thread/bsp/stm32/libraries/HAL_Drivers/drv_gpio.o
 .text.stm32_pin_dettach_irq
                0x0000000008009f1c       0xd0 /home/ldq/rk-linux/rt-thread/bsp/stm32/libraries/HAL_Drivers/drv_gpio.o
 .text.stm32_pin_irq_enable
                0x0000000008009fec      0x1e0 /home/ldq/rk-linux/rt-thread/bsp/stm32/libraries/HAL_Drivers/drv_gpio.o
 .text.pin_irq_hdr
                0x000000000800a1cc       0x54 /home/ldq/rk-linux/rt-thread/bsp/stm32/libraries/HAL_Drivers/drv_gpio.o
 .text.HAL_GPIO_EXTI_Callback
                0x000000000800a220       0x22 /home/ldq/rk-linux/rt-thread/bsp/stm32/libraries/HAL_Drivers/drv_gpio.o
                0x000000000800a220                HAL_GPIO_EXTI_Callback
 .text.EXTI0_IRQHandler
                0x000000000800a242       0x16 /home/ldq/rk-linux/rt-thread/bsp/stm32/libraries/HAL_Drivers/drv_gpio.o
                0x000000000800a242                EXTI0_IRQHandler
 .text.EXTI1_IRQHandler
                0x000000000800a258       0x16 /home/ldq/rk-linux/rt-thread/bsp/stm32/libraries/HAL_Drivers/drv_gpio.o
                0x000000000800a258                EXTI1_IRQHandler
 .text.EXTI2_IRQHandler
                0x000000000800a26e       0x16 /home/ldq/rk-linux/rt-thread/bsp/stm32/libraries/HAL_Drivers/drv_gpio.o
                0x000000000800a26e                EXTI2_IRQHandler
 .text.EXTI3_IRQHandler
                0x000000000800a284       0x16 /home/ldq/rk-linux/rt-thread/bsp/stm32/libraries/HAL_Drivers/drv_gpio.o
                0x000000000800a284                EXTI3_IRQHandler
 .text.EXTI4_IRQHandler
                0x000000000800a29a       0x16 /home/ldq/rk-linux/rt-thread/bsp/stm32/libraries/HAL_Drivers/drv_gpio.o
                0x000000000800a29a                EXTI4_IRQHandler
 .text.EXTI9_5_IRQHandler
                0x000000000800a2b0       0x32 /home/ldq/rk-linux/rt-thread/bsp/stm32/libraries/HAL_Drivers/drv_gpio.o
                0x000000000800a2b0                EXTI9_5_IRQHandler
 .text.EXTI15_10_IRQHandler
                0x000000000800a2e2       0x40 /home/ldq/rk-linux/rt-thread/bsp/stm32/libraries/HAL_Drivers/drv_gpio.o
                0x000000000800a2e2                EXTI15_10_IRQHandler
 *fill*         0x000000000800a322        0x2 00000000
 .text.rt_hw_pin_init
                0x000000000800a324       0xd0 /home/ldq/rk-linux/rt-thread/bsp/stm32/libraries/HAL_Drivers/drv_gpio.o
                0x000000000800a324                rt_hw_pin_init
 .text.NVIC_EnableIRQ
                0x000000000800a3f4       0x30 /home/ldq/rk-linux/rt-thread/bsp/stm32/libraries/HAL_Drivers/drv_usart.o
 .text.NVIC_DisableIRQ
                0x000000000800a424       0x34 /home/ldq/rk-linux/rt-thread/bsp/stm32/libraries/HAL_Drivers/drv_usart.o
 .text.stm32_configure
                0x000000000800a458      0x128 /home/ldq/rk-linux/rt-thread/bsp/stm32/libraries/HAL_Drivers/drv_usart.o
 .text.stm32_control
                0x000000000800a580       0xa8 /home/ldq/rk-linux/rt-thread/bsp/stm32/libraries/HAL_Drivers/drv_usart.o
 .text.stm32_putc
                0x000000000800a628       0x58 /home/ldq/rk-linux/rt-thread/bsp/stm32/libraries/HAL_Drivers/drv_usart.o
 .text.stm32_getc
                0x000000000800a680       0x64 /home/ldq/rk-linux/rt-thread/bsp/stm32/libraries/HAL_Drivers/drv_usart.o
 .text.stm32_dma_transmit
                0x000000000800a6e4       0x78 /home/ldq/rk-linux/rt-thread/bsp/stm32/libraries/HAL_Drivers/drv_usart.o
 .text.uart_isr
                0x000000000800a75c      0x234 /home/ldq/rk-linux/rt-thread/bsp/stm32/libraries/HAL_Drivers/drv_usart.o
 .text.dma_isr  0x000000000800a990       0xcc /home/ldq/rk-linux/rt-thread/bsp/stm32/libraries/HAL_Drivers/drv_usart.o
 .text.USART1_IRQHandler
                0x000000000800aa5c       0x1c /home/ldq/rk-linux/rt-thread/bsp/stm32/libraries/HAL_Drivers/drv_usart.o
                0x000000000800aa5c                USART1_IRQHandler
 .text.DMA1_Channel5_IRQHandler
                0x000000000800aa78       0x1c /home/ldq/rk-linux/rt-thread/bsp/stm32/libraries/HAL_Drivers/drv_usart.o
                0x000000000800aa78                DMA1_Channel5_IRQHandler
 .text.stm32_dma_config
                0x000000000800aa94      0x1e4 /home/ldq/rk-linux/rt-thread/bsp/stm32/libraries/HAL_Drivers/drv_usart.o
 .text.HAL_UART_ErrorCallback
                0x000000000800ac78       0x30 /home/ldq/rk-linux/rt-thread/bsp/stm32/libraries/HAL_Drivers/drv_usart.o
                0x000000000800ac78                HAL_UART_ErrorCallback
 .text.HAL_UART_RxCpltCallback
                0x000000000800aca8       0x38 /home/ldq/rk-linux/rt-thread/bsp/stm32/libraries/HAL_Drivers/drv_usart.o
                0x000000000800aca8                HAL_UART_RxCpltCallback
 .text.HAL_UART_RxHalfCpltCallback
                0x000000000800ace0       0x38 /home/ldq/rk-linux/rt-thread/bsp/stm32/libraries/HAL_Drivers/drv_usart.o
                0x000000000800ace0                HAL_UART_RxHalfCpltCallback
 .text.HAL_UART_TxCpltCallback
                0x000000000800ad18       0x3c /home/ldq/rk-linux/rt-thread/bsp/stm32/libraries/HAL_Drivers/drv_usart.o
                0x000000000800ad18                HAL_UART_TxCpltCallback
 .text.stm32_uart_get_dma_config
                0x000000000800ad54       0x38 /home/ldq/rk-linux/rt-thread/bsp/stm32/libraries/HAL_Drivers/drv_usart.o
 .text.rt_hw_usart_init
                0x000000000800ad8c      0x118 /home/ldq/rk-linux/rt-thread/bsp/stm32/libraries/HAL_Drivers/drv_usart.o
                0x000000000800ad8c                rt_hw_usart_init
 .text.reboot   0x000000000800aea4       0x18 /home/ldq/rk-linux/rt-thread/bsp/stm32/libraries/HAL_Drivers/drv_common.o
 .text.rt_hw_systick_init
                0x000000000800aebc       0x34 /home/ldq/rk-linux/rt-thread/bsp/stm32/libraries/HAL_Drivers/drv_common.o
                0x000000000800aebc                rt_hw_systick_init
 .text.SysTick_Handler
                0x000000000800aef0       0x18 /home/ldq/rk-linux/rt-thread/bsp/stm32/libraries/HAL_Drivers/drv_common.o
                0x000000000800aef0                SysTick_Handler
 .text.HAL_GetTick
                0x000000000800af08       0x24 /home/ldq/rk-linux/rt-thread/bsp/stm32/libraries/HAL_Drivers/drv_common.o
                0x000000000800af08                HAL_GetTick
 .text.HAL_InitTick
                0x000000000800af2c       0x14 /home/ldq/rk-linux/rt-thread/bsp/stm32/libraries/HAL_Drivers/drv_common.o
                0x000000000800af2c                HAL_InitTick
 .text._Error_Handler
                0x000000000800af40        0xc /home/ldq/rk-linux/rt-thread/bsp/stm32/libraries/HAL_Drivers/drv_common.o
                0x000000000800af40                _Error_Handler
 .text.rt_hw_board_init
                0x000000000800af4c       0x3c /home/ldq/rk-linux/rt-thread/bsp/stm32/libraries/HAL_Drivers/drv_common.o
                0x000000000800af4c                rt_hw_board_init
 .text.startup.register_fini
                0x000000000800af88       0x14 /home/ldq/rk-linux/prebuilts/gcc-arm-none-eabi-7-2018-q2-update/bin/../lib/gcc/arm-none-eabi/7.3.1/../../../../arm-none-eabi/lib/thumb/v7-m/libc.a(lib_a-__call_atexit.o)
 .text.atexit   0x000000000800af9c        0xc /home/ldq/rk-linux/prebuilts/gcc-arm-none-eabi-7-2018-q2-update/bin/../lib/gcc/arm-none-eabi/7.3.1/../../../../arm-none-eabi/lib/thumb/v7-m/libc.a(lib_a-atexit.o)
                0x000000000800af9c                atexit
 .text.__libc_fini_array
                0x000000000800afa8       0x34 /home/ldq/rk-linux/prebuilts/gcc-arm-none-eabi-7-2018-q2-update/bin/../lib/gcc/arm-none-eabi/7.3.1/../../../../arm-none-eabi/lib/thumb/v7-m/libc.a(lib_a-fini.o)
                0x000000000800afa8                __libc_fini_array
 .text.__retarget_lock_acquire_recursive
                0x000000000800afdc        0x4 /home/ldq/rk-linux/prebuilts/gcc-arm-none-eabi-7-2018-q2-update/bin/../lib/gcc/arm-none-eabi/7.3.1/../../../../arm-none-eabi/lib/thumb/v7-m/libc.a(lib_a-lock.o)
                0x000000000800afdc                __retarget_lock_acquire_recursive
 .text.__retarget_lock_release_recursive
                0x000000000800afe0        0x4 /home/ldq/rk-linux/prebuilts/gcc-arm-none-eabi-7-2018-q2-update/bin/../lib/gcc/arm-none-eabi/7.3.1/../../../../arm-none-eabi/lib/thumb/v7-m/libc.a(lib_a-lock.o)
                0x000000000800afe0                __retarget_lock_release_recursive
 .text.__register_exitproc
                0x000000000800afe4       0xc0 /home/ldq/rk-linux/prebuilts/gcc-arm-none-eabi-7-2018-q2-update/bin/../lib/gcc/arm-none-eabi/7.3.1/../../../../arm-none-eabi/lib/thumb/v7-m/libc.a(lib_a-__atexit.o)
                0x000000000800afe4                __register_exitproc
 *(.rodata)
 .rodata        0x000000000800b0a4        0xe build/board/board.o
 *fill*         0x000000000800b0b2        0x2 00000000
 .rodata        0x000000000800b0b4       0x17 build/kernel/src/components.o
 *fill*         0x000000000800b0cb        0x1 00000000
 .rodata        0x000000000800b0cc      0x10c build/kernel/src/device.o
 .rodata        0x000000000800b1d8       0x34 build/kernel/src/idle.o
 .rodata        0x000000000800b20c      0x476 build/kernel/src/ipc.o
 *fill*         0x000000000800b682        0x2 00000000
 .rodata        0x000000000800b684       0xc7 build/kernel/src/kservice.o
 *fill*         0x000000000800b74b        0x1 00000000
 .rodata        0x000000000800b74c      0x2fa build/kernel/src/mem.o
 *fill*         0x000000000800ba46        0x2 00000000
 .rodata        0x000000000800ba48       0x91 build/kernel/src/object.o
 *fill*         0x000000000800bad9        0x3 00000000
 .rodata        0x000000000800badc       0x65 build/kernel/src/scheduler.o
 *fill*         0x000000000800bb41        0x3 00000000
 .rodata        0x000000000800bb44      0x1a7 build/kernel/src/thread.o
 *fill*         0x000000000800bceb        0x1 00000000
 .rodata        0x000000000800bcec       0xd7 build/kernel/src/timer.o
 *fill*         0x000000000800bdc3        0x1 00000000
 .rodata        0x000000000800bdc4      0x2be build/kernel/libcpu/arm/cortex-m3/cpuport.o
 *fill*         0x000000000800c082        0x2 00000000
 .rodata        0x000000000800c084       0x27 build/kernel/components/drivers/misc/pin.o
 *fill*         0x000000000800c0ab        0x1 00000000
 .rodata        0x000000000800c0ac      0x126 build/kernel/components/drivers/serial/serial.o
 *fill*         0x000000000800c1d2        0x2 00000000
 .rodata        0x000000000800c1d4       0x72 build/kernel/components/drivers/src/completion.o
 *fill*         0x000000000800c246        0x2 00000000
 .rodata        0x000000000800c248       0x64 build/kernel/components/drivers/src/dataqueue.o
 .rodata        0x000000000800c2ac       0x99 build/kernel/components/finsh/shell.o
 *fill*         0x000000000800c345        0x3 00000000
 .rodata        0x000000000800c348      0x631 build/kernel/components/finsh/cmd.o
 *fill*         0x000000000800c979        0x3 00000000
 .rodata        0x000000000800c97c       0x80 build/kernel/components/finsh/msh.o
 .rodata        0x000000000800c9fc       0x12 /home/ldq/rk-linux/rt-thread/bsp/stm32/libraries/STM32F1xx_HAL/STM32F1xx_HAL_Driver/Src/stm32f1xx_hal_rcc.o
 *fill*         0x000000000800ca0e        0x2 00000000
 .rodata        0x000000000800ca10        0x4 /home/ldq/rk-linux/rt-thread/bsp/stm32/libraries/HAL_Drivers/drv_gpio.o
 .rodata        0x000000000800ca14       0x6c /home/ldq/rk-linux/rt-thread/bsp/stm32/libraries/HAL_Drivers/drv_usart.o
 .rodata        0x000000000800ca80        0x6 /home/ldq/rk-linux/rt-thread/bsp/stm32/libraries/HAL_Drivers/drv_common.o
 *(.rodata*)
 *fill*         0x000000000800ca86        0x2 00000000
 .rodata.__FUNCTION__.5230
                0x000000000800ca88       0x14 build/kernel/src/components.o
 .rodata.__FUNCTION__.5120
                0x000000000800ca9c        0xf build/kernel/src/device.o
 *fill*         0x000000000800caab        0x1 00000000
 .rodata.__FUNCTION__.5144
                0x000000000800caac        0xf build/kernel/src/device.o
 *fill*         0x000000000800cabb        0x1 00000000
 .rodata.__FUNCTION__.5149
                0x000000000800cabc       0x10 build/kernel/src/device.o
 .rodata.__FUNCTION__.5156
                0x000000000800cacc        0xf build/kernel/src/device.o
 *fill*         0x000000000800cadb        0x1 00000000
 .rodata.__FUNCTION__.5163
                0x000000000800cadc       0x10 build/kernel/src/device.o
 .rodata.__FUNCTION__.5176
                0x000000000800caec       0x1a build/kernel/src/device.o
 *fill*         0x000000000800cb06        0x2 00000000
 .rodata.__FUNCTION__.5210
                0x000000000800cb08       0x16 build/kernel/src/idle.o
 *fill*         0x000000000800cb1e        0x2 00000000
 .rodata.__FUNCTION__.5216
                0x000000000800cb20        0xc build/kernel/src/ipc.o
 .rodata.__FUNCTION__.5240
                0x000000000800cb2c        0xc build/kernel/src/ipc.o
 .rodata.__FUNCTION__.5251
                0x000000000800cb38        0xf build/kernel/src/ipc.o
 *fill*         0x000000000800cb47        0x1 00000000
 .rodata.large_digits.5350
                0x000000000800cb48       0x11 build/kernel/src/kservice.o
 *fill*         0x000000000800cb59        0x3 00000000
 .rodata.small_digits.5349
                0x000000000800cb5c       0x11 build/kernel/src/kservice.o
 *fill*         0x000000000800cb6d        0x3 00000000
 .rodata.name   0x000000000800cb70       0x2a build/kernel/src/mem.o
                0x000000000800cb70                __fsym_list_mem_name
                0x000000000800cb7c                __fsym_list_mem_desc
 *fill*         0x000000000800cb9a        0x2 00000000
 .rodata.__FUNCTION__.5207
                0x000000000800cb9c        0xb build/kernel/src/mem.o
 *fill*         0x000000000800cba7        0x1 00000000
 .rodata.__FUNCTION__.5216
                0x000000000800cba8       0x14 build/kernel/src/mem.o
 .rodata.__FUNCTION__.5225
                0x000000000800cbbc        0xa build/kernel/src/mem.o
 *fill*         0x000000000800cbc6        0x2 00000000
 .rodata.__FUNCTION__.5254
                0x000000000800cbc8        0x8 build/kernel/src/mem.o
 .rodata.__FUNCTION__.5236
                0x000000000800cbd0        0xf build/kernel/src/object.o
 *fill*         0x000000000800cbdf        0x1 00000000
 .rodata.__FUNCTION__.5245
                0x000000000800cbe0       0x11 build/kernel/src/object.o
 *fill*         0x000000000800cbf1        0x3 00000000
 .rodata.__FUNCTION__.5254
                0x000000000800cbf4       0x13 build/kernel/src/object.o
 *fill*         0x000000000800cc07        0x1 00000000
 .rodata.__FUNCTION__.5259
                0x000000000800cc08       0x11 build/kernel/src/object.o
 *fill*         0x000000000800cc19        0x3 00000000
 .rodata.__FUNCTION__.5263
                0x000000000800cc1c       0x1a build/kernel/src/object.o
 *fill*         0x000000000800cc36        0x2 00000000
 .rodata.__FUNCTION__.5267
                0x000000000800cc38       0x13 build/kernel/src/object.o
 *fill*         0x000000000800cc4b        0x1 00000000
 .rodata.__FUNCTION__.5194
                0x000000000800cc4c       0x1a build/kernel/src/scheduler.o
 *fill*         0x000000000800cc66        0x2 00000000
 .rodata.__FUNCTION__.5235
                0x000000000800cc68       0x1a build/kernel/src/scheduler.o
 *fill*         0x000000000800cc82        0x2 00000000
 .rodata.__FUNCTION__.5241
                0x000000000800cc84       0x1a build/kernel/src/scheduler.o
 *fill*         0x000000000800cc9e        0x2 00000000
 .rodata.__FUNCTION__.5211
                0x000000000800cca0       0x10 build/kernel/src/thread.o
 .rodata.__FUNCTION__.5223
                0x000000000800ccb0        0xf build/kernel/src/thread.o
 *fill*         0x000000000800ccbf        0x1 00000000
 .rodata.__FUNCTION__.5232
                0x000000000800ccc0       0x12 build/kernel/src/thread.o
 *fill*         0x000000000800ccd2        0x2 00000000
 .rodata.__FUNCTION__.5262
                0x000000000800ccd4       0x10 build/kernel/src/thread.o
 .rodata.__FUNCTION__.5287
                0x000000000800cce4       0x12 build/kernel/src/thread.o
 *fill*         0x000000000800ccf6        0x2 00000000
 .rodata.__FUNCTION__.5292
                0x000000000800ccf8       0x11 build/kernel/src/thread.o
 *fill*         0x000000000800cd09        0x3 00000000
 .rodata.__FUNCTION__.5297
                0x000000000800cd0c       0x12 build/kernel/src/thread.o
 *fill*         0x000000000800cd1e        0x2 00000000
 .rodata.__FUNCTION__.5225
                0x000000000800cd20        0xe build/kernel/src/timer.o
 *fill*         0x000000000800cd2e        0x2 00000000
 .rodata.__FUNCTION__.5230
                0x000000000800cd30       0x10 build/kernel/src/timer.o
 .rodata.__FUNCTION__.5254
                0x000000000800cd40        0xf build/kernel/src/timer.o
 *fill*         0x000000000800cd4f        0x1 00000000
 .rodata.__FUNCTION__.5271
                0x000000000800cd50        0xe build/kernel/src/timer.o
 *fill*         0x000000000800cd5e        0x2 00000000
 .rodata.__FUNCTION__.5277
                0x000000000800cd60       0x11 build/kernel/src/timer.o
 *fill*         0x000000000800cd71        0x3 00000000
 .rodata.name   0x000000000800cd74       0x6e build/kernel/components/drivers/misc/pin.o
                0x000000000800cd74                __fsym_pinMode_name
                0x000000000800cd7c                __fsym_pinMode_desc
                0x000000000800cd94                __fsym_pinWrite_name
                0x000000000800cda0                __fsym_pinWrite_desc
                0x000000000800cdbc                __fsym_pinRead_name
                0x000000000800cdc4                __fsym_pinRead_desc
 *fill*         0x000000000800cde2        0x2 00000000
 .rodata.__FUNCTION__.5722
                0x000000000800cde4        0xa build/kernel/components/drivers/misc/pin.o
 *fill*         0x000000000800cdee        0x2 00000000
 .rodata.__FUNCTION__.5731
                0x000000000800cdf0        0xb build/kernel/components/drivers/misc/pin.o
 *fill*         0x000000000800cdfb        0x1 00000000
 .rodata.__FUNCTION__.5739
                0x000000000800cdfc        0xd build/kernel/components/drivers/misc/pin.o
 *fill*         0x000000000800ce09        0x3 00000000
 .rodata.__FUNCTION__.5766
                0x000000000800ce0c        0xc build/kernel/components/drivers/misc/pin.o
 .rodata.__FUNCTION__.5774
                0x000000000800ce18        0xd build/kernel/components/drivers/misc/pin.o
 *fill*         0x000000000800ce25        0x3 00000000
 .rodata.__FUNCTION__.5781
                0x000000000800ce28        0xc build/kernel/components/drivers/misc/pin.o
 .rodata.__FUNCTION__.5612
                0x000000000800ce34       0x1d build/kernel/components/drivers/serial/serial.o
 *fill*         0x000000000800ce51        0x3 00000000
 .rodata.__FUNCTION__.5621
                0x000000000800ce54       0x1d build/kernel/components/drivers/serial/serial.o
 *fill*         0x000000000800ce71        0x3 00000000
 .rodata.__FUNCTION__.5627
                0x000000000800ce74       0x1d build/kernel/components/drivers/serial/serial.o
 *fill*         0x000000000800ce91        0x3 00000000
 .rodata.__FUNCTION__.5653
                0x000000000800ce94        0xf build/kernel/components/drivers/serial/serial.o
 *fill*         0x000000000800cea3        0x1 00000000
 .rodata.__FUNCTION__.5660
                0x000000000800cea4        0xf build/kernel/components/drivers/serial/serial.o
 *fill*         0x000000000800ceb3        0x1 00000000
 .rodata.__FUNCTION__.5670
                0x000000000800ceb4       0x10 build/kernel/components/drivers/serial/serial.o
 .rodata.__FUNCTION__.5683
                0x000000000800cec4        0xf build/kernel/components/drivers/serial/serial.o
 *fill*         0x000000000800ced3        0x1 00000000
 .rodata.__FUNCTION__.5591
                0x000000000800ced4        0xf build/kernel/components/drivers/serial/serial.o
 *fill*         0x000000000800cee3        0x1 00000000
 .rodata.__FUNCTION__.5634
                0x000000000800cee4        0xf build/kernel/components/drivers/serial/serial.o
 *fill*         0x000000000800cef3        0x1 00000000
 .rodata.__FUNCTION__.5570
                0x000000000800cef4       0x10 build/kernel/components/drivers/serial/serial.o
 .rodata.__FUNCTION__.5691
                0x000000000800cf04       0x10 build/kernel/components/drivers/serial/serial.o
 .rodata.__FUNCTION__.5604
                0x000000000800cf14        0xf build/kernel/components/drivers/serial/serial.o
 *fill*         0x000000000800cf23        0x1 00000000
 .rodata.__FUNCTION__.5580
                0x000000000800cf24       0x10 build/kernel/components/drivers/serial/serial.o
 .rodata.__FUNCTION__.5699
                0x000000000800cf34       0x12 build/kernel/components/drivers/serial/serial.o
 *fill*         0x000000000800cf46        0x2 00000000
 .rodata.__FUNCTION__.5714
                0x000000000800cf48       0x16 build/kernel/components/drivers/serial/serial.o
 *fill*         0x000000000800cf5e        0x2 00000000
 .rodata.__FUNCTION__.5723
                0x000000000800cf60       0x11 build/kernel/components/drivers/serial/serial.o
 *fill*         0x000000000800cf71        0x3 00000000
 .rodata.__FUNCTION__.5567
                0x000000000800cf74       0x13 build/kernel/components/drivers/src/completion.o
 *fill*         0x000000000800cf87        0x1 00000000
 .rodata.__FUNCTION__.5575
                0x000000000800cf88       0x13 build/kernel/components/drivers/src/completion.o
 *fill*         0x000000000800cf9b        0x1 00000000
 .rodata.__FUNCTION__.5582
                0x000000000800cf9c       0x13 build/kernel/components/drivers/src/completion.o
 *fill*         0x000000000800cfaf        0x1 00000000
 .rodata.__FUNCTION__.5573
                0x000000000800cfb0       0x13 build/kernel/components/drivers/src/dataqueue.o
 *fill*         0x000000000800cfc3        0x1 00000000
 .rodata.__FUNCTION__.5583
                0x000000000800cfc4       0x13 build/kernel/components/drivers/src/dataqueue.o
 *fill*         0x000000000800cfd7        0x1 00000000
 .rodata.__FUNCTION__.5598
                0x000000000800cfd8       0x12 build/kernel/components/drivers/src/dataqueue.o
 *fill*         0x000000000800cfea        0x2 00000000
 .rodata.__FUNCTION__.5610
                0x000000000800cfec       0x13 build/kernel/components/drivers/src/dataqueue.o
 *fill*         0x000000000800cfff        0x1 00000000
 .rodata.__FUNCTION__.5463
                0x000000000800d000       0x16 build/kernel/components/finsh/shell.o
 *fill*         0x000000000800d016        0x2 00000000
 .rodata.__FUNCTION__.5468
                0x000000000800d018        0xe build/kernel/components/finsh/shell.o
 *fill*         0x000000000800d026        0x2 00000000
 .rodata.__FUNCTION__.5476
                0x000000000800d028        0xd build/kernel/components/finsh/shell.o
 *fill*         0x000000000800d035        0x3 00000000
 .rodata.__FUNCTION__.5481
                0x000000000800d038       0x11 build/kernel/components/finsh/shell.o
 *fill*         0x000000000800d049        0x3 00000000
 .rodata.name   0x000000000800d04c      0x37a build/kernel/components/finsh/cmd.o
                0x000000000800d04c                __fsym_hello_name
                0x000000000800d054                __fsym_hello_desc
                0x000000000800d064                __fsym_version_name
                0x000000000800d06c                __fsym_version_desc
                0x000000000800d090                __fsym___cmd_version_name
                0x000000000800d0a0                __fsym___cmd_version_desc
                0x000000000800d0c4                __fsym_list_thread_name
                0x000000000800d0d0                __fsym_list_thread_desc
                0x000000000800d0dc                __fsym___cmd_list_thread_name
                0x000000000800d0f0                __fsym___cmd_list_thread_desc
                0x000000000800d0fc                __fsym_list_sem_name
                0x000000000800d108                __fsym_list_sem_desc
                0x000000000800d124                __fsym___cmd_list_sem_name
                0x000000000800d134                __fsym___cmd_list_sem_desc
                0x000000000800d150                __fsym_list_event_name
                0x000000000800d15c                __fsym_list_event_desc
                0x000000000800d174                __fsym___cmd_list_event_name
                0x000000000800d188                __fsym___cmd_list_event_desc
                0x000000000800d1a0                __fsym_list_mutex_name
                0x000000000800d1ac                __fsym_list_mutex_desc
                0x000000000800d1c4                __fsym___cmd_list_mutex_name
                0x000000000800d1d8                __fsym___cmd_list_mutex_desc
                0x000000000800d1f0                __fsym_list_mailbox_name
                0x000000000800d200                __fsym_list_mailbox_desc
                0x000000000800d218                __fsym___cmd_list_mailbox_name
                0x000000000800d22c                __fsym___cmd_list_mailbox_desc
                0x000000000800d244                __fsym_list_msgqueue_name
                0x000000000800d254                __fsym_list_msgqueue_desc
                0x000000000800d274                __fsym___cmd_list_msgqueue_name
                0x000000000800d288                __fsym___cmd_list_msgqueue_desc
                0x000000000800d2a8                __fsym_list_mempool_name
                0x000000000800d2b8                __fsym_list_mempool_desc
                0x000000000800d2d4                __fsym___cmd_list_mempool_name
                0x000000000800d2e8                __fsym___cmd_list_mempool_desc
                0x000000000800d304                __fsym_list_timer_name
                0x000000000800d310                __fsym_list_timer_desc
                0x000000000800d328                __fsym___cmd_list_timer_name
                0x000000000800d33c                __fsym___cmd_list_timer_desc
                0x000000000800d354                __fsym_list_device_name
                0x000000000800d360                __fsym_list_device_desc
                0x000000000800d378                __fsym___cmd_list_device_name
                0x000000000800d38c                __fsym___cmd_list_device_desc
                0x000000000800d3a4                __fsym_list_name
                0x000000000800d3ac                __fsym_list_desc
 *fill*         0x000000000800d3c6        0x2 00000000
 .rodata.device_type_str
                0x000000000800d3c8       0x58 build/kernel/components/finsh/cmd.o
 .rodata.name   0x000000000800d420       0x22 build/kernel/components/finsh/msh.o
                0x000000000800d420                __fsym___cmd_help_name
                0x000000000800d42c                __fsym___cmd_help_desc
 *fill*         0x000000000800d442        0x2 00000000
 .rodata.__FUNCTION__.5435
                0x000000000800d444        0xe build/kernel/components/finsh/msh.o
 *fill*         0x000000000800d452        0x2 00000000
 .rodata.name   0x000000000800d454       0x81 build/kernel/components/finsh/msh_cmd.o
                0x000000000800d454                __fsym___cmd_ps_name
                0x000000000800d460                __fsym___cmd_ps_desc
                0x000000000800d47c                __fsym___cmd_time_name
                0x000000000800d488                __fsym___cmd_time_desc
                0x000000000800d4a4                __fsym___cmd_free_name
                0x000000000800d4b0                __fsym___cmd_free_desc
 *fill*         0x000000000800d4d5        0x3 00000000
 .rodata.AHBPrescTable
                0x000000000800d4d8       0x10 /home/ldq/rk-linux/rt-thread/bsp/stm32/libraries/STM32F1xx_HAL/CMSIS/Device/ST/STM32F1xx/Source/Templates/system_stm32f1xx.o
                0x000000000800d4d8                AHBPrescTable
 .rodata.APBPrescTable
                0x000000000800d4e8        0x8 /home/ldq/rk-linux/rt-thread/bsp/stm32/libraries/STM32F1xx_HAL/CMSIS/Device/ST/STM32F1xx/Source/Templates/system_stm32f1xx.o
                0x000000000800d4e8                APBPrescTable
 .rodata.pins   0x000000000800d4f0      0x540 /home/ldq/rk-linux/rt-thread/bsp/stm32/libraries/HAL_Drivers/drv_gpio.o
 .rodata.pin_irq_map
                0x000000000800da30       0x40 /home/ldq/rk-linux/rt-thread/bsp/stm32/libraries/HAL_Drivers/drv_gpio.o
 .rodata._stm32_pin_ops
                0x000000000800da70       0x18 /home/ldq/rk-linux/rt-thread/bsp/stm32/libraries/HAL_Drivers/drv_gpio.o
 .rodata.stm32_uart_ops
                0x000000000800da88       0x14 /home/ldq/rk-linux/rt-thread/bsp/stm32/libraries/HAL_Drivers/drv_usart.o
 .rodata.__FUNCTION__.7024
                0x000000000800da9c       0x10 /home/ldq/rk-linux/rt-thread/bsp/stm32/libraries/HAL_Drivers/drv_usart.o
 .rodata.__FUNCTION__.7045
                0x000000000800daac        0xe /home/ldq/rk-linux/rt-thread/bsp/stm32/libraries/HAL_Drivers/drv_usart.o
 *fill*         0x000000000800daba        0x2 00000000
 .rodata.__FUNCTION__.7055
                0x000000000800dabc        0xb /home/ldq/rk-linux/rt-thread/bsp/stm32/libraries/HAL_Drivers/drv_usart.o
 *fill*         0x000000000800dac7        0x1 00000000
 .rodata.__FUNCTION__.7064
                0x000000000800dac8        0xb /home/ldq/rk-linux/rt-thread/bsp/stm32/libraries/HAL_Drivers/drv_usart.o
 *fill*         0x000000000800dad3        0x1 00000000
 .rodata.__FUNCTION__.7072
                0x000000000800dad4       0x13 /home/ldq/rk-linux/rt-thread/bsp/stm32/libraries/HAL_Drivers/drv_usart.o
 *fill*         0x000000000800dae7        0x1 00000000
 .rodata.__FUNCTION__.7081
                0x000000000800dae8        0x9 /home/ldq/rk-linux/rt-thread/bsp/stm32/libraries/HAL_Drivers/drv_usart.o
 *fill*         0x000000000800daf1        0x3 00000000
 .rodata.__FUNCTION__.7094
                0x000000000800daf4        0x8 /home/ldq/rk-linux/rt-thread/bsp/stm32/libraries/HAL_Drivers/drv_usart.o
 .rodata.__FUNCTION__.7109
                0x000000000800dafc       0x11 /home/ldq/rk-linux/rt-thread/bsp/stm32/libraries/HAL_Drivers/drv_usart.o
 *fill*         0x000000000800db0d        0x3 00000000
 .rodata.__FUNCTION__.7114
                0x000000000800db10       0x17 /home/ldq/rk-linux/rt-thread/bsp/stm32/libraries/HAL_Drivers/drv_usart.o
 *fill*         0x000000000800db27        0x1 00000000
 .rodata.__FUNCTION__.7120
                0x000000000800db28       0x18 /home/ldq/rk-linux/rt-thread/bsp/stm32/libraries/HAL_Drivers/drv_usart.o
 .rodata.__FUNCTION__.7125
                0x000000000800db40       0x1c /home/ldq/rk-linux/rt-thread/bsp/stm32/libraries/HAL_Drivers/drv_usart.o
 .rodata.__FUNCTION__.7130
                0x000000000800db5c       0x18 /home/ldq/rk-linux/rt-thread/bsp/stm32/libraries/HAL_Drivers/drv_usart.o
 .rodata.__FUNCTION__.7142
                0x000000000800db74       0x11 /home/ldq/rk-linux/rt-thread/bsp/stm32/libraries/HAL_Drivers/drv_usart.o
 *fill*         0x000000000800db85        0x3 00000000
 .rodata.name   0x000000000800db88       0x1e /home/ldq/rk-linux/rt-thread/bsp/stm32/libraries/HAL_Drivers/drv_common.o
                0x000000000800db88                __fsym___cmd_reboot_name
                0x000000000800db98                __fsym___cmd_reboot_desc
 *fill*         0x000000000800dba6        0x2 00000000
 .rodata._global_impure_ptr
                0x000000000800dba8        0x4 /home/ldq/rk-linux/prebuilts/gcc-arm-none-eabi-7-2018-q2-update/bin/../lib/gcc/arm-none-eabi/7.3.1/../../../../arm-none-eabi/lib/thumb/v7-m/libc.a(lib_a-impure.o)
                0x000000000800dba8                _global_impure_ptr
 *(.glue_7)
 .glue_7        0x000000000800dbac        0x0 linker stubs
 *(.glue_7t)
 .glue_7t       0x000000000800dbac        0x0 linker stubs
 *(.gnu.linkonce.t*)
                0x000000000800dbac                . = ALIGN (0x4)
                0x000000000800dbac                __fsymtab_start = .
 *(FSymTab)
 FSymTab        0x000000000800dbac        0xc build/kernel/src/mem.o
                0x000000000800dbac                __fsym_list_mem
 FSymTab        0x000000000800dbb8       0x24 build/kernel/components/drivers/misc/pin.o
                0x000000000800dbb8                __fsym_pinMode
                0x000000000800dbc4                __fsym_pinWrite
                0x000000000800dbd0                __fsym_pinRead
 FSymTab        0x000000000800dbdc      0x108 build/kernel/components/finsh/cmd.o
                0x000000000800dbdc                __fsym_hello
                0x000000000800dbe8                __fsym_version
                0x000000000800dbf4                __fsym___cmd_version
                0x000000000800dc00                __fsym_list_thread
                0x000000000800dc0c                __fsym___cmd_list_thread
                0x000000000800dc18                __fsym_list_sem
                0x000000000800dc24                __fsym___cmd_list_sem
                0x000000000800dc30                __fsym_list_event
                0x000000000800dc3c                __fsym___cmd_list_event
                0x000000000800dc48                __fsym_list_mutex
                0x000000000800dc54                __fsym___cmd_list_mutex
                0x000000000800dc60                __fsym_list_mailbox
                0x000000000800dc6c                __fsym___cmd_list_mailbox
                0x000000000800dc78                __fsym_list_msgqueue
                0x000000000800dc84                __fsym___cmd_list_msgqueue
                0x000000000800dc90                __fsym_list_mempool
                0x000000000800dc9c                __fsym___cmd_list_mempool
                0x000000000800dca8                __fsym_list_timer
                0x000000000800dcb4                __fsym___cmd_list_timer
                0x000000000800dcc0                __fsym_list_device
                0x000000000800dccc                __fsym___cmd_list_device
                0x000000000800dcd8                __fsym_list
 FSymTab        0x000000000800dce4        0xc build/kernel/components/finsh/msh.o
                0x000000000800dce4                __fsym___cmd_help
 FSymTab        0x000000000800dcf0       0x24 build/kernel/components/finsh/msh_cmd.o
                0x000000000800dcf0                __fsym___cmd_ps
                0x000000000800dcfc                __fsym___cmd_time
                0x000000000800dd08                __fsym___cmd_free
 FSymTab        0x000000000800dd14        0xc /home/ldq/rk-linux/rt-thread/bsp/stm32/libraries/HAL_Drivers/drv_common.o
                0x000000000800dd14                __fsym___cmd_reboot
                0x000000000800dd20                __fsymtab_end = .
                0x000000000800dd20                . = ALIGN (0x4)
                0x000000000800dd20                __vsymtab_start = .
 *(VSymTab)
                0x000000000800dd20                __vsymtab_end = .
                0x000000000800dd20                . = ALIGN (0x4)
                0x000000000800dd20                __rt_init_start = .
 *(SORT_BY_NAME(.rti_fn*))
 .rti_fn.0      0x000000000800dd20        0x4 build/kernel/src/components.o
                0x000000000800dd20                __rt_init_rti_start
 .rti_fn.0.end  0x000000000800dd24        0x4 build/kernel/src/components.o
                0x000000000800dd24                __rt_init_rti_board_start
 .rti_fn.1.end  0x000000000800dd28        0x4 build/kernel/src/components.o
                0x000000000800dd28                __rt_init_rti_board_end
 .rti_fn.6      0x000000000800dd2c        0x4 build/kernel/components/finsh/shell.o
                0x000000000800dd2c                __rt_init_finsh_system_init
 .rti_fn.6.end  0x000000000800dd30        0x4 build/kernel/src/components.o
                0x000000000800dd30                __rt_init_rti_end
                0x000000000800dd34                __rt_init_end = .
                0x000000000800dd34                . = ALIGN (0x4)
                [!provide]                        PROVIDE (__ctors_start__ = .)
 *(SORT_BY_NAME(.init_array.*))
 .init_array.00000
                0x000000000800dd34        0x4 /home/ldq/rk-linux/prebuilts/gcc-arm-none-eabi-7-2018-q2-update/bin/../lib/gcc/arm-none-eabi/7.3.1/../../../../arm-none-eabi/lib/thumb/v7-m/libc.a(lib_a-__call_atexit.o)
 *(.init_array)
 .init_array    0x000000000800dd38        0x4 /home/ldq/rk-linux/prebuilts/gcc-arm-none-eabi-7-2018-q2-update/bin/../lib/gcc/arm-none-eabi/7.3.1/thumb/v7-m/crtbegin.o
                [!provide]                        PROVIDE (__ctors_end__ = .)
                0x000000000800dd3c                . = ALIGN (0x4)
                0x000000000800dd3c                _etext = .
                0x000000000800dd3c                __exidx_start = .

.vfp11_veneer   0x000000000800dd3c        0x0
 .vfp11_veneer  0x000000000800dd3c        0x0 linker stubs

.v4_bx          0x000000000800dd3c        0x0
 .v4_bx         0x000000000800dd3c        0x0 linker stubs

.init           0x000000000800dd3c        0x4
 .init          0x000000000800dd3c        0x4 /home/ldq/rk-linux/prebuilts/gcc-arm-none-eabi-7-2018-q2-update/bin/../lib/gcc/arm-none-eabi/7.3.1/thumb/v7-m/crti.o
                0x000000000800dd3c                _init

.fini           0x000000000800dd40        0x4
 .fini          0x000000000800dd40        0x4 /home/ldq/rk-linux/prebuilts/gcc-arm-none-eabi-7-2018-q2-update/bin/../lib/gcc/arm-none-eabi/7.3.1/thumb/v7-m/crti.o
                0x000000000800dd40                _fini

.iplt           0x000000000800dd44        0x0
 .iplt          0x000000000800dd44        0x0 /home/ldq/rk-linux/prebuilts/gcc-arm-none-eabi-7-2018-q2-update/bin/../lib/gcc/arm-none-eabi/7.3.1/thumb/v7-m/crtbegin.o

.eh_frame       0x000000000800dd44        0x0
 .eh_frame      0x000000000800dd44        0x0 /home/ldq/rk-linux/prebuilts/gcc-arm-none-eabi-7-2018-q2-update/bin/../lib/gcc/arm-none-eabi/7.3.1/thumb/v7-m/crtbegin.o

.rel.dyn        0x000000000800dd44        0x0
 .rel.iplt      0x000000000800dd44        0x0 /home/ldq/rk-linux/prebuilts/gcc-arm-none-eabi-7-2018-q2-update/bin/../lib/gcc/arm-none-eabi/7.3.1/thumb/v7-m/crtbegin.o

.ARM.exidx      0x000000000800dd44        0x0
 *(.ARM.exidx* .gnu.linkonce.armexidx.*)
                0x000000000800dd44                _sidata = .
                0x000000000800dd44                __exidx_end = .

.data           0x0000000020000000      0x5a4 load address 0x000000000800dd44
                0x0000000020000000                . = ALIGN (0x4)
                0x0000000020000000                _sdata = .
 *(.data)
 *(.data.*)
 .data.rt_object_container
                0x0000000020000000       0x90 build/kernel/src/object.o
 .data.SystemCoreClock
                0x0000000020000090        0x4 /home/ldq/rk-linux/rt-thread/bsp/stm32/libraries/STM32F1xx_HAL/CMSIS/Device/ST/STM32F1xx/Source/Templates/system_stm32f1xx.o
                0x0000000020000090                SystemCoreClock
 .data.uwTickFreq
                0x0000000020000094        0x1 /home/ldq/rk-linux/rt-thread/bsp/stm32/libraries/STM32F1xx_HAL/STM32F1xx_HAL_Driver/Src/stm32f1xx_hal.o
                0x0000000020000094                uwTickFreq
 *fill*         0x0000000020000095        0x3 
 .data.pin_irq_hdr_tab
                0x0000000020000098       0xc0 /home/ldq/rk-linux/rt-thread/bsp/stm32/libraries/HAL_Drivers/drv_gpio.o
 .data.uart_config
                0x0000000020000158       0x14 /home/ldq/rk-linux/rt-thread/bsp/stm32/libraries/HAL_Drivers/drv_usart.o
 .data.uart1_dma_rx.7134
                0x000000002000016c        0xc /home/ldq/rk-linux/rt-thread/bsp/stm32/libraries/HAL_Drivers/drv_usart.o
 .data.impure_data
                0x0000000020000178      0x428 /home/ldq/rk-linux/prebuilts/gcc-arm-none-eabi-7-2018-q2-update/bin/../lib/gcc/arm-none-eabi/7.3.1/../../../../arm-none-eabi/lib/thumb/v7-m/libc.a(lib_a-impure.o)
 .data.__atexit_recursive_mutex
                0x00000000200005a0        0x4 /home/ldq/rk-linux/prebuilts/gcc-arm-none-eabi-7-2018-q2-update/bin/../lib/gcc/arm-none-eabi/7.3.1/../../../../arm-none-eabi/lib/thumb/v7-m/libc.a(lib_a-__call_atexit.o)
                0x00000000200005a0                __atexit_recursive_mutex
 *(.gnu.linkonce.d*)
                [!provide]                        PROVIDE (__dtors_start__ = .)
 *(SORT_BY_NAME(.dtors.*))
 *(.dtors)
                [!provide]                        PROVIDE (__dtors_end__ = .)
                0x00000000200005a4                . = ALIGN (0x4)
                0x00000000200005a4                _edata = .

.igot.plt       0x00000000200005a4        0x0 load address 0x000000000800e2e8
 .igot.plt      0x00000000200005a4        0x0 /home/ldq/rk-linux/prebuilts/gcc-arm-none-eabi-7-2018-q2-update/bin/../lib/gcc/arm-none-eabi/7.3.1/thumb/v7-m/crtbegin.o

.stack          0x00000000200005a4      0x200 load address 0x000000000800e2e8
                0x00000000200005a4                . = ALIGN (0x4)
                0x00000000200005a4                _sstack = .
                0x00000000200007a4                . = (. + _system_stack_size)
 *fill*         0x00000000200005a4      0x200 
                0x00000000200007a4                . = ALIGN (0x4)
                0x00000000200007a4                _estack = .
                0x00000000200007a4                __bss_start = .

.bss            0x00000000200007a4      0x61c load address 0x000000000800e4e8
                0x00000000200007a4                . = ALIGN (0x4)
                0x00000000200007a4                _sbss = .
 *(.bss)
 .bss           0x00000000200007a4       0x1c /home/ldq/rk-linux/prebuilts/gcc-arm-none-eabi-7-2018-q2-update/bin/../lib/gcc/arm-none-eabi/7.3.1/thumb/v7-m/crtbegin.o
 *(.bss.*)
 .bss.rt_tick   0x00000000200007c0        0x4 build/kernel/src/clock.o
 .bss.idle      0x00000000200007c4       0x80 build/kernel/src/idle.o
 .bss.rt_thread_stack
                0x0000000020000844      0x100 build/kernel/src/idle.o
 .bss.idle_hook_list
                0x0000000020000944       0x10 build/kernel/src/idle.o
 .bss.rt_interrupt_enter_hook
                0x0000000020000954        0x4 build/kernel/src/irq.o
 .bss.rt_interrupt_leave_hook
                0x0000000020000958        0x4 build/kernel/src/irq.o
 .bss.rt_interrupt_nest
                0x000000002000095c        0x1 build/kernel/src/irq.o
                0x000000002000095c                rt_interrupt_nest
 *fill*         0x000000002000095d        0x3 
 .bss.__rt_errno
                0x0000000020000960        0x4 build/kernel/src/kservice.o
 .bss._console_device
                0x0000000020000964        0x4 build/kernel/src/kservice.o
 .bss.rt_log_buf.5460
                0x0000000020000968       0x80 build/kernel/src/kservice.o
 .bss.rt_malloc_hook
                0x00000000200009e8        0x4 build/kernel/src/mem.o
 .bss.rt_free_hook
                0x00000000200009ec        0x4 build/kernel/src/mem.o
 .bss.heap_ptr  0x00000000200009f0        0x4 build/kernel/src/mem.o
 .bss.heap_end  0x00000000200009f4        0x4 build/kernel/src/mem.o
 .bss.lfree     0x00000000200009f8        0x4 build/kernel/src/mem.o
 .bss.heap_sem  0x00000000200009fc       0x20 build/kernel/src/mem.o
 .bss.mem_size_aligned
                0x0000000020000a1c        0x4 build/kernel/src/mem.o
 .bss.used_mem  0x0000000020000a20        0x4 build/kernel/src/mem.o
 .bss.max_mem   0x0000000020000a24        0x4 build/kernel/src/mem.o
 .bss.rt_object_attach_hook
                0x0000000020000a28        0x4 build/kernel/src/object.o
 .bss.rt_object_detach_hook
                0x0000000020000a2c        0x4 build/kernel/src/object.o
 .bss.rt_scheduler_lock_nest
                0x0000000020000a30        0x2 build/kernel/src/scheduler.o
 *fill*         0x0000000020000a32        0x2 
 .bss.rt_scheduler_hook
                0x0000000020000a34        0x4 build/kernel/src/scheduler.o
 .bss.rt_thread_suspend_hook
                0x0000000020000a38        0x4 build/kernel/src/thread.o
 .bss.rt_thread_resume_hook
                0x0000000020000a3c        0x4 build/kernel/src/thread.o
 .bss.rt_thread_inited_hook
                0x0000000020000a40        0x4 build/kernel/src/thread.o
 .bss.rt_timer_list
                0x0000000020000a44        0x8 build/kernel/src/timer.o
 .bss.rt_timer_enter_hook
                0x0000000020000a4c        0x4 build/kernel/src/timer.o
 .bss.rt_timer_exit_hook
                0x0000000020000a50        0x4 build/kernel/src/timer.o
 .bss.random_nr.5253
                0x0000000020000a54        0x4 build/kernel/src/timer.o
 .bss.rt_exception_hook
                0x0000000020000a58        0x4 build/kernel/libcpu/arm/cortex-m3/cpuport.o
 .bss._hw_pin   0x0000000020000a5c       0x44 build/kernel/components/drivers/misc/pin.o
 .bss.finsh_prompt_custom
                0x0000000020000aa0        0x4 build/kernel/components/finsh/shell.o
 .bss.finsh_prompt.5455
                0x0000000020000aa4       0x81 build/kernel/components/finsh/shell.o
 *fill*         0x0000000020000b25        0x3 
 .bss._syscall_table_begin
                0x0000000020000b28        0x4 build/kernel/components/finsh/symbol.o
                0x0000000020000b28                _syscall_table_begin
 .bss._syscall_table_end
                0x0000000020000b2c        0x4 build/kernel/components/finsh/symbol.o
                0x0000000020000b2c                _syscall_table_end
 .bss._sysvar_table_begin
                0x0000000020000b30        0x4 build/kernel/components/finsh/symbol.o
                0x0000000020000b30                _sysvar_table_begin
 .bss._sysvar_table_end
                0x0000000020000b34        0x4 build/kernel/components/finsh/symbol.o
                0x0000000020000b34                _sysvar_table_end
 .bss.pin_irq_enable_mask
                0x0000000020000b38        0x4 /home/ldq/rk-linux/rt-thread/bsp/stm32/libraries/HAL_Drivers/drv_gpio.o
 .bss.uart_obj  0x0000000020000b3c      0x128 /home/ldq/rk-linux/rt-thread/bsp/stm32/libraries/HAL_Drivers/drv_usart.o
 *(COMMON)
 COMMON         0x0000000020000c64        0x4 build/kernel/src/kservice.o
                0x0000000020000c64                rt_assert_hook
 COMMON         0x0000000020000c68        0xc build/kernel/src/object.o
                0x0000000020000c68                rt_object_put_hook
                0x0000000020000c6c                rt_object_take_hook
                0x0000000020000c70                rt_object_trytake_hook
 COMMON         0x0000000020000c74      0x114 build/kernel/src/scheduler.o
                0x0000000020000c74                rt_thread_priority_table
                0x0000000020000d74                rt_current_priority
                0x0000000020000d78                rt_current_thread
                0x0000000020000d7c                rt_thread_ready_priority_group
                0x0000000020000d80                rt_thread_defunct
 COMMON         0x0000000020000d88        0xc build/kernel/libcpu/arm/cortex-m3/cpuport.o
                0x0000000020000d88                rt_interrupt_to_thread
                0x0000000020000d8c                rt_interrupt_from_thread
                0x0000000020000d90                rt_thread_switch_interrupt_flag
 COMMON         0x0000000020000d94        0x4 build/kernel/components/finsh/shell.o
                0x0000000020000d94                shell
 COMMON         0x0000000020000d98        0x4 /home/ldq/rk-linux/rt-thread/bsp/stm32/libraries/STM32F1xx_HAL/STM32F1xx_HAL_Driver/Src/stm32f1xx_hal.o
                0x0000000020000d98                uwTick
 COMMON         0x0000000020000d9c       0x21 /home/ldq/rk-linux/prebuilts/gcc-arm-none-eabi-7-2018-q2-update/bin/../lib/gcc/arm-none-eabi/7.3.1/../../../../arm-none-eabi/lib/thumb/v7-m/libc.a(lib_a-lock.o)
                0x0000000020000d9c                __lock___atexit_recursive_mutex
                0x0000000020000da0                __lock___arc4random_mutex
                0x0000000020000da4                __lock___env_recursive_mutex
                0x0000000020000da8                __lock___sinit_recursive_mutex
                0x0000000020000dac                __lock___malloc_recursive_mutex
                0x0000000020000db0                __lock___at_quick_exit_mutex
                0x0000000020000db4                __lock___dd_hash_mutex
                0x0000000020000db8                __lock___tz_mutex
                0x0000000020000dbc                __lock___sfp_recursive_mutex
                0x0000000020000dc0                . = ALIGN (0x4)
 *fill*         0x0000000020000dbd        0x3 
                0x0000000020000dc0                _ebss = .
 *(.bss.init)
                0x0000000020000dc0                __bss_end = .
                0x0000000020000dc0                _end = .

.stab
 *(.stab)

.stabstr
 *(.stabstr)

.stab.excl
 *(.stab.excl)

.stab.exclstr
 *(.stab.exclstr)

.stab.index
 *(.stab.index)

.stab.indexstr
 *(.stab.indexstr)

.comment        0x0000000000000000       0x7f
 *(.comment)
 .comment       0x0000000000000000       0x7f build/applications/main.o
                                         0x80 (size before relaxing)
 .comment       0x000000000000007f       0x80 build/board/board.o
 .comment       0x000000000000007f       0x80 build/board/CubeMX_Config/Src/stm32f1xx_hal_msp.o
 .comment       0x000000000000007f       0x80 build/kernel/src/clock.o
 .comment       0x000000000000007f       0x80 build/kernel/src/components.o
 .comment       0x000000000000007f       0x80 build/kernel/src/device.o
 .comment       0x000000000000007f       0x80 build/kernel/src/idle.o
 .comment       0x000000000000007f       0x80 build/kernel/src/ipc.o
 .comment       0x000000000000007f       0x80 build/kernel/src/irq.o
 .comment       0x000000000000007f       0x80 build/kernel/src/kservice.o
 .comment       0x000000000000007f       0x80 build/kernel/src/mem.o
 .comment       0x000000000000007f       0x80 build/kernel/src/object.o
 .comment       0x000000000000007f       0x80 build/kernel/src/scheduler.o
 .comment       0x000000000000007f       0x80 build/kernel/src/thread.o
 .comment       0x000000000000007f       0x80 build/kernel/src/timer.o
 .comment       0x000000000000007f       0x80 build/kernel/libcpu/arm/cortex-m3/cpuport.o
 .comment       0x000000000000007f       0x80 build/kernel/components/drivers/misc/pin.o
 .comment       0x000000000000007f       0x80 build/kernel/components/drivers/serial/serial.o
 .comment       0x000000000000007f       0x80 build/kernel/components/drivers/src/completion.o
 .comment       0x000000000000007f       0x80 build/kernel/components/drivers/src/dataqueue.o
 .comment       0x000000000000007f       0x80 build/kernel/components/finsh/shell.o
 .comment       0x000000000000007f       0x80 build/kernel/components/finsh/symbol.o
 .comment       0x000000000000007f       0x80 build/kernel/components/finsh/cmd.o
 .comment       0x000000000000007f       0x80 build/kernel/components/finsh/msh.o
 .comment       0x000000000000007f       0x80 build/kernel/components/finsh/msh_cmd.o
 .comment       0x000000000000007f       0x80 build/kernel/components/libc/compilers/minilibc/stdlib.o
 .comment       0x000000000000007f       0x80 build/kernel/components/libc/compilers/minilibc/string.o
 .comment       0x000000000000007f       0x80 /home/ldq/rk-linux/rt-thread/bsp/stm32/libraries/STM32F1xx_HAL/CMSIS/Device/ST/STM32F1xx/Source/Templates/system_stm32f1xx.o
 .comment       0x000000000000007f       0x80 /home/ldq/rk-linux/rt-thread/bsp/stm32/libraries/STM32F1xx_HAL/STM32F1xx_HAL_Driver/Src/stm32f1xx_hal_dma.o
 .comment       0x000000000000007f       0x80 /home/ldq/rk-linux/rt-thread/bsp/stm32/libraries/STM32F1xx_HAL/STM32F1xx_HAL_Driver/Src/stm32f1xx_hal_cortex.o
 .comment       0x000000000000007f       0x80 /home/ldq/rk-linux/rt-thread/bsp/stm32/libraries/STM32F1xx_HAL/STM32F1xx_HAL_Driver/Src/stm32f1xx_hal_rcc.o
 .comment       0x000000000000007f       0x80 /home/ldq/rk-linux/rt-thread/bsp/stm32/libraries/STM32F1xx_HAL/STM32F1xx_HAL_Driver/Src/stm32f1xx_hal.o
 .comment       0x000000000000007f       0x80 /home/ldq/rk-linux/rt-thread/bsp/stm32/libraries/STM32F1xx_HAL/STM32F1xx_HAL_Driver/Src/stm32f1xx_hal_gpio.o
 .comment       0x000000000000007f       0x80 /home/ldq/rk-linux/rt-thread/bsp/stm32/libraries/STM32F1xx_HAL/STM32F1xx_HAL_Driver/Src/stm32f1xx_hal_uart.o
 .comment       0x000000000000007f       0x80 /home/ldq/rk-linux/rt-thread/bsp/stm32/libraries/HAL_Drivers/drv_gpio.o
 .comment       0x000000000000007f       0x80 /home/ldq/rk-linux/rt-thread/bsp/stm32/libraries/HAL_Drivers/drv_usart.o
 .comment       0x000000000000007f       0x80 /home/ldq/rk-linux/rt-thread/bsp/stm32/libraries/HAL_Drivers/drv_common.o

.ARM.attributes
                0x0000000000000000       0x29
 .ARM.attributes
                0x0000000000000000       0x1d /home/ldq/rk-linux/prebuilts/gcc-arm-none-eabi-7-2018-q2-update/bin/../lib/gcc/arm-none-eabi/7.3.1/thumb/v7-m/crti.o
 .ARM.attributes
                0x000000000000001d       0x2d /home/ldq/rk-linux/prebuilts/gcc-arm-none-eabi-7-2018-q2-update/bin/../lib/gcc/arm-none-eabi/7.3.1/thumb/v7-m/crtbegin.o
 .ARM.attributes
                0x000000000000004a       0x33 build/applications/main.o
 .ARM.attributes
                0x000000000000007d       0x33 build/board/board.o
 .ARM.attributes
                0x00000000000000b0       0x33 build/board/CubeMX_Config/Src/stm32f1xx_hal_msp.o
 .ARM.attributes
                0x00000000000000e3       0x21 /home/ldq/rk-linux/rt-thread/bsp/stm32/libraries/STM32F1xx_HAL/CMSIS/Device/ST/STM32F1xx/Source/Templates/gcc/startup_stm32f103xe.o
 .ARM.attributes
                0x0000000000000104       0x33 build/kernel/src/clock.o
 .ARM.attributes
                0x0000000000000137       0x33 build/kernel/src/components.o
 .ARM.attributes
                0x000000000000016a       0x33 build/kernel/src/device.o
 .ARM.attributes
                0x000000000000019d       0x33 build/kernel/src/idle.o
 .ARM.attributes
                0x00000000000001d0       0x33 build/kernel/src/ipc.o
 .ARM.attributes
                0x0000000000000203       0x33 build/kernel/src/irq.o
 .ARM.attributes
                0x0000000000000236       0x33 build/kernel/src/kservice.o
 .ARM.attributes
                0x0000000000000269       0x33 build/kernel/src/mem.o
 .ARM.attributes
                0x000000000000029c       0x33 build/kernel/src/object.o
 .ARM.attributes
                0x00000000000002cf       0x33 build/kernel/src/scheduler.o
 .ARM.attributes
                0x0000000000000302       0x33 build/kernel/src/thread.o
 .ARM.attributes
                0x0000000000000335       0x33 build/kernel/src/timer.o
 .ARM.attributes
                0x0000000000000368       0x33 build/kernel/libcpu/arm/cortex-m3/cpuport.o
 .ARM.attributes
                0x000000000000039b       0x21 build/kernel/libcpu/arm/cortex-m3/context_gcc.o
 .ARM.attributes
                0x00000000000003bc       0x33 build/kernel/components/drivers/misc/pin.o
 .ARM.attributes
                0x00000000000003ef       0x33 build/kernel/components/drivers/serial/serial.o
 .ARM.attributes
                0x0000000000000422       0x33 build/kernel/components/drivers/src/completion.o
 .ARM.attributes
                0x0000000000000455       0x33 build/kernel/components/drivers/src/dataqueue.o
 .ARM.attributes
                0x0000000000000488       0x33 build/kernel/components/finsh/shell.o
 .ARM.attributes
                0x00000000000004bb       0x33 build/kernel/components/finsh/symbol.o
 .ARM.attributes
                0x00000000000004ee       0x33 build/kernel/components/finsh/cmd.o
 .ARM.attributes
                0x0000000000000521       0x33 build/kernel/components/finsh/msh.o
 .ARM.attributes
                0x0000000000000554       0x33 build/kernel/components/finsh/msh_cmd.o
 .ARM.attributes
                0x0000000000000587       0x33 build/kernel/components/libc/compilers/minilibc/stdlib.o
 .ARM.attributes
                0x00000000000005ba       0x33 build/kernel/components/libc/compilers/minilibc/string.o
 .ARM.attributes
                0x00000000000005ed       0x33 /home/ldq/rk-linux/rt-thread/bsp/stm32/libraries/STM32F1xx_HAL/CMSIS/Device/ST/STM32F1xx/Source/Templates/system_stm32f1xx.o
 .ARM.attributes
                0x0000000000000620       0x33 /home/ldq/rk-linux/rt-thread/bsp/stm32/libraries/STM32F1xx_HAL/STM32F1xx_HAL_Driver/Src/stm32f1xx_hal_dma.o
 .ARM.attributes
                0x0000000000000653       0x33 /home/ldq/rk-linux/rt-thread/bsp/stm32/libraries/STM32F1xx_HAL/STM32F1xx_HAL_Driver/Src/stm32f1xx_hal_cortex.o
 .ARM.attributes
                0x0000000000000686       0x33 /home/ldq/rk-linux/rt-thread/bsp/stm32/libraries/STM32F1xx_HAL/STM32F1xx_HAL_Driver/Src/stm32f1xx_hal_rcc.o
 .ARM.attributes
                0x00000000000006b9       0x33 /home/ldq/rk-linux/rt-thread/bsp/stm32/libraries/STM32F1xx_HAL/STM32F1xx_HAL_Driver/Src/stm32f1xx_hal.o
 .ARM.attributes
                0x00000000000006ec       0x33 /home/ldq/rk-linux/rt-thread/bsp/stm32/libraries/STM32F1xx_HAL/STM32F1xx_HAL_Driver/Src/stm32f1xx_hal_gpio.o
 .ARM.attributes
                0x000000000000071f       0x33 /home/ldq/rk-linux/rt-thread/bsp/stm32/libraries/STM32F1xx_HAL/STM32F1xx_HAL_Driver/Src/stm32f1xx_hal_uart.o
 .ARM.attributes
                0x0000000000000752       0x33 /home/ldq/rk-linux/rt-thread/bsp/stm32/libraries/HAL_Drivers/drv_gpio.o
 .ARM.attributes
                0x0000000000000785       0x33 /home/ldq/rk-linux/rt-thread/bsp/stm32/libraries/HAL_Drivers/drv_usart.o
 .ARM.attributes
                0x00000000000007b8       0x33 /home/ldq/rk-linux/rt-thread/bsp/stm32/libraries/HAL_Drivers/drv_common.o
 .ARM.attributes
                0x00000000000007eb       0x2d /home/ldq/rk-linux/prebuilts/gcc-arm-none-eabi-7-2018-q2-update/bin/../lib/gcc/arm-none-eabi/7.3.1/../../../../arm-none-eabi/lib/thumb/v7-m/libc.a(lib_a-impure.o)
 .ARM.attributes
                0x0000000000000818       0x2d /home/ldq/rk-linux/prebuilts/gcc-arm-none-eabi-7-2018-q2-update/bin/../lib/gcc/arm-none-eabi/7.3.1/../../../../arm-none-eabi/lib/thumb/v7-m/libc.a(lib_a-__call_atexit.o)
 .ARM.attributes
                0x0000000000000845       0x2d /home/ldq/rk-linux/prebuilts/gcc-arm-none-eabi-7-2018-q2-update/bin/../lib/gcc/arm-none-eabi/7.3.1/../../../../arm-none-eabi/lib/thumb/v7-m/libc.a(lib_a-atexit.o)
 .ARM.attributes
                0x0000000000000872       0x2d /home/ldq/rk-linux/prebuilts/gcc-arm-none-eabi-7-2018-q2-update/bin/../lib/gcc/arm-none-eabi/7.3.1/../../../../arm-none-eabi/lib/thumb/v7-m/libc.a(lib_a-fini.o)
 .ARM.attributes
                0x000000000000089f       0x2d /home/ldq/rk-linux/prebuilts/gcc-arm-none-eabi-7-2018-q2-update/bin/../lib/gcc/arm-none-eabi/7.3.1/../../../../arm-none-eabi/lib/thumb/v7-m/libc.a(lib_a-lock.o)
 .ARM.attributes
                0x00000000000008cc       0x2d /home/ldq/rk-linux/prebuilts/gcc-arm-none-eabi-7-2018-q2-update/bin/../lib/gcc/arm-none-eabi/7.3.1/../../../../arm-none-eabi/lib/thumb/v7-m/libc.a(lib_a-__atexit.o)

.debug
 *(.debug)

.line
 *(.line)

.debug_srcinfo
 *(.debug_srcinfo)

.debug_sfnames
 *(.debug_sfnames)

.debug_aranges  0x0000000000000000     0x1460
 *(.debug_aranges)
 .debug_aranges
                0x0000000000000000       0x20 build/applications/main.o
 .debug_aranges
                0x0000000000000020       0x20 build/board/board.o
 .debug_aranges
                0x0000000000000040       0x30 build/board/CubeMX_Config/Src/stm32f1xx_hal_msp.o
 .debug_aranges
                0x0000000000000070       0x28 /home/ldq/rk-linux/rt-thread/bsp/stm32/libraries/STM32F1xx_HAL/CMSIS/Device/ST/STM32F1xx/Source/Templates/gcc/startup_stm32f103xe.o
 .debug_aranges
                0x0000000000000098       0x40 build/kernel/src/clock.o
 .debug_aranges
                0x00000000000000d8       0x68 build/kernel/src/components.o
 .debug_aranges
                0x0000000000000140       0x88 build/kernel/src/device.o
 .debug_aranges
                0x00000000000001c8       0x58 build/kernel/src/idle.o
 .debug_aranges
                0x0000000000000220      0x180 build/kernel/src/ipc.o
 .debug_aranges
                0x00000000000003a0       0x40 build/kernel/src/irq.o
 .debug_aranges
                0x00000000000003e0      0x118 build/kernel/src/kservice.o
 .debug_aranges
                0x00000000000004f8       0x68 build/kernel/src/mem.o
 .debug_aranges
                0x0000000000000560       0x98 build/kernel/src/object.o
 .debug_aranges
                0x00000000000005f8       0x90 build/kernel/src/scheduler.o
 .debug_aranges
                0x0000000000000688       0xd0 build/kernel/src/thread.o
 .debug_aranges
                0x0000000000000758       0xb8 build/kernel/src/timer.o
 .debug_aranges
                0x0000000000000810       0x68 build/kernel/libcpu/arm/cortex-m3/cpuport.o
 .debug_aranges
                0x0000000000000878       0x20 build/kernel/libcpu/arm/cortex-m3/context_gcc.o
 .debug_aranges
                0x0000000000000898       0x68 build/kernel/components/drivers/misc/pin.o
 .debug_aranges
                0x0000000000000900       0xa8 build/kernel/components/drivers/serial/serial.o
 .debug_aranges
                0x00000000000009a8       0x48 build/kernel/components/drivers/src/completion.o
 .debug_aranges
                0x00000000000009f0       0x58 build/kernel/components/drivers/src/dataqueue.o
 .debug_aranges
                0x0000000000000a48       0xa0 build/kernel/components/finsh/shell.o
 .debug_aranges
                0x0000000000000ae8       0x18 build/kernel/components/finsh/symbol.o
 .debug_aranges
                0x0000000000000b00       0xa8 build/kernel/components/finsh/cmd.o
 .debug_aranges
                0x0000000000000ba8       0x58 build/kernel/components/finsh/msh.o
 .debug_aranges
                0x0000000000000c00       0x30 build/kernel/components/finsh/msh_cmd.o
 .debug_aranges
                0x0000000000000c30       0x48 build/kernel/components/libc/compilers/minilibc/stdlib.o
 .debug_aranges
                0x0000000000000c78       0xf0 build/kernel/components/libc/compilers/minilibc/string.o
 .debug_aranges
                0x0000000000000d68       0x28 /home/ldq/rk-linux/rt-thread/bsp/stm32/libraries/STM32F1xx_HAL/CMSIS/Device/ST/STM32F1xx/Source/Templates/system_stm32f1xx.o
 .debug_aranges
                0x0000000000000d90       0x80 /home/ldq/rk-linux/rt-thread/bsp/stm32/libraries/STM32F1xx_HAL/STM32F1xx_HAL_Driver/Src/stm32f1xx_hal_dma.o
 .debug_aranges
                0x0000000000000e10      0x100 /home/ldq/rk-linux/rt-thread/bsp/stm32/libraries/STM32F1xx_HAL/STM32F1xx_HAL_Driver/Src/stm32f1xx_hal_cortex.o
 .debug_aranges
                0x0000000000000f10       0x90 /home/ldq/rk-linux/rt-thread/bsp/stm32/libraries/STM32F1xx_HAL/STM32F1xx_HAL_Driver/Src/stm32f1xx_hal_rcc.o
 .debug_aranges
                0x0000000000000fa0       0xd0 /home/ldq/rk-linux/rt-thread/bsp/stm32/libraries/STM32F1xx_HAL/STM32F1xx_HAL_Driver/Src/stm32f1xx_hal.o
 .debug_aranges
                0x0000000000001070       0x58 /home/ldq/rk-linux/rt-thread/bsp/stm32/libraries/STM32F1xx_HAL/STM32F1xx_HAL_Driver/Src/stm32f1xx_hal_gpio.o
 .debug_aranges
                0x00000000000010c8      0x1d0 /home/ldq/rk-linux/rt-thread/bsp/stm32/libraries/STM32F1xx_HAL/STM32F1xx_HAL_Driver/Src/stm32f1xx_hal_uart.o
 .debug_aranges
                0x0000000000001298       0xb0 /home/ldq/rk-linux/rt-thread/bsp/stm32/libraries/HAL_Drivers/drv_gpio.o
 .debug_aranges
                0x0000000000001348       0xa8 /home/ldq/rk-linux/rt-thread/bsp/stm32/libraries/HAL_Drivers/drv_usart.o
 .debug_aranges
                0x00000000000013f0       0x70 /home/ldq/rk-linux/rt-thread/bsp/stm32/libraries/HAL_Drivers/drv_common.o

.debug_pubnames
 *(.debug_pubnames)

.debug_info     0x0000000000000000    0x178ca
 *(.debug_info .gnu.linkonce.wi.*)
 .debug_info    0x0000000000000000      0x2ca build/applications/main.o
 .debug_info    0x00000000000002ca      0x38f build/board/board.o
 .debug_info    0x0000000000000659      0x96a build/board/CubeMX_Config/Src/stm32f1xx_hal_msp.o
 .debug_info    0x0000000000000fc3       0x22 /home/ldq/rk-linux/rt-thread/bsp/stm32/libraries/STM32F1xx_HAL/CMSIS/Device/ST/STM32F1xx/Source/Templates/gcc/startup_stm32f103xe.o
 .debug_info    0x0000000000000fe5      0x4e0 build/kernel/src/clock.o
 .debug_info    0x00000000000014c5      0x5ed build/kernel/src/components.o
 .debug_info    0x0000000000001ab2      0x9de build/kernel/src/device.o
 .debug_info    0x0000000000002490      0x6d5 build/kernel/src/idle.o
 .debug_info    0x0000000000002b65     0x1acf build/kernel/src/ipc.o
 .debug_info    0x0000000000004634      0x262 build/kernel/src/irq.o
 .debug_info    0x0000000000004896     0x12ae build/kernel/src/kservice.o
 .debug_info    0x0000000000005b44      0x8a8 build/kernel/src/mem.o
 .debug_info    0x00000000000063ec      0x816 build/kernel/src/object.o
 .debug_info    0x0000000000006c02      0x87c build/kernel/src/scheduler.o
 .debug_info    0x000000000000747e      0xc32 build/kernel/src/thread.o
 .debug_info    0x00000000000080b0      0x95b build/kernel/src/timer.o
 .debug_info    0x0000000000008a0b      0x4d2 build/kernel/libcpu/arm/cortex-m3/cpuport.o
 .debug_info    0x0000000000008edd       0x26 build/kernel/libcpu/arm/cortex-m3/context_gcc.o
 .debug_info    0x0000000000008f03      0xc1b build/kernel/components/drivers/misc/pin.o
 .debug_info    0x0000000000009b1e     0x126a build/kernel/components/drivers/serial/serial.o
 .debug_info    0x000000000000ad88      0x622 build/kernel/components/drivers/src/completion.o
 .debug_info    0x000000000000b3aa      0x848 build/kernel/components/drivers/src/dataqueue.o
 .debug_info    0x000000000000bbf2      0xe0a build/kernel/components/finsh/shell.o
 .debug_info    0x000000000000c9fc      0x242 build/kernel/components/finsh/symbol.o
 .debug_info    0x000000000000cc3e     0x1b2e build/kernel/components/finsh/cmd.o
 .debug_info    0x000000000000e76c      0x5eb build/kernel/components/finsh/msh.o
 .debug_info    0x000000000000ed57      0x429 build/kernel/components/finsh/msh_cmd.o
 .debug_info    0x000000000000f180      0x28f build/kernel/components/libc/compilers/minilibc/stdlib.o
 .debug_info    0x000000000000f40f      0xbcc build/kernel/components/libc/compilers/minilibc/string.o
 .debug_info    0x000000000000ffdb      0x524 /home/ldq/rk-linux/rt-thread/bsp/stm32/libraries/STM32F1xx_HAL/CMSIS/Device/ST/STM32F1xx/Source/Templates/system_stm32f1xx.o
 .debug_info    0x00000000000104ff      0x8be /home/ldq/rk-linux/rt-thread/bsp/stm32/libraries/STM32F1xx_HAL/STM32F1xx_HAL_Driver/Src/stm32f1xx_hal_dma.o
 .debug_info    0x0000000000010dbd      0xd14 /home/ldq/rk-linux/rt-thread/bsp/stm32/libraries/STM32F1xx_HAL/STM32F1xx_HAL_Driver/Src/stm32f1xx_hal_cortex.o
 .debug_info    0x0000000000011ad1      0x95b /home/ldq/rk-linux/rt-thread/bsp/stm32/libraries/STM32F1xx_HAL/STM32F1xx_HAL_Driver/Src/stm32f1xx_hal_rcc.o
 .debug_info    0x000000000001242c      0x898 /home/ldq/rk-linux/rt-thread/bsp/stm32/libraries/STM32F1xx_HAL/STM32F1xx_HAL_Driver/Src/stm32f1xx_hal.o
 .debug_info    0x0000000000012cc4      0x79c /home/ldq/rk-linux/rt-thread/bsp/stm32/libraries/STM32F1xx_HAL/STM32F1xx_HAL_Driver/Src/stm32f1xx_hal_gpio.o
 .debug_info    0x0000000000013460     0x13d6 /home/ldq/rk-linux/rt-thread/bsp/stm32/libraries/STM32F1xx_HAL/STM32F1xx_HAL_Driver/Src/stm32f1xx_hal_uart.o
 .debug_info    0x0000000000014836     0x107b /home/ldq/rk-linux/rt-thread/bsp/stm32/libraries/HAL_Drivers/drv_gpio.o
 .debug_info    0x00000000000158b1     0x18bd /home/ldq/rk-linux/rt-thread/bsp/stm32/libraries/HAL_Drivers/drv_usart.o
 .debug_info    0x000000000001716e      0x75c /home/ldq/rk-linux/rt-thread/bsp/stm32/libraries/HAL_Drivers/drv_common.o

.debug_abbrev   0x0000000000000000     0x4ccf
 *(.debug_abbrev)
 .debug_abbrev  0x0000000000000000      0x136 build/applications/main.o
 .debug_abbrev  0x0000000000000136      0x134 build/board/board.o
 .debug_abbrev  0x000000000000026a      0x194 build/board/CubeMX_Config/Src/stm32f1xx_hal_msp.o
 .debug_abbrev  0x00000000000003fe       0x12 /home/ldq/rk-linux/rt-thread/bsp/stm32/libraries/STM32F1xx_HAL/CMSIS/Device/ST/STM32F1xx/Source/Templates/gcc/startup_stm32f103xe.o
 .debug_abbrev  0x0000000000000410      0x18a build/kernel/src/clock.o
 .debug_abbrev  0x000000000000059a      0x19f build/kernel/src/components.o
 .debug_abbrev  0x0000000000000739      0x1ff build/kernel/src/device.o
 .debug_abbrev  0x0000000000000938      0x247 build/kernel/src/idle.o
 .debug_abbrev  0x0000000000000b7f      0x246 build/kernel/src/ipc.o
 .debug_abbrev  0x0000000000000dc5      0x156 build/kernel/src/irq.o
 .debug_abbrev  0x0000000000000f1b      0x313 build/kernel/src/kservice.o
 .debug_abbrev  0x000000000000122e      0x251 build/kernel/src/mem.o
 .debug_abbrev  0x000000000000147f      0x25b build/kernel/src/object.o
 .debug_abbrev  0x00000000000016da      0x288 build/kernel/src/scheduler.o
 .debug_abbrev  0x0000000000001962      0x27c build/kernel/src/thread.o
 .debug_abbrev  0x0000000000001bde      0x2cf build/kernel/src/timer.o
 .debug_abbrev  0x0000000000001ead      0x20e build/kernel/libcpu/arm/cortex-m3/cpuport.o
 .debug_abbrev  0x00000000000020bb       0x14 build/kernel/libcpu/arm/cortex-m3/context_gcc.o
 .debug_abbrev  0x00000000000020cf      0x1cb build/kernel/components/drivers/misc/pin.o
 .debug_abbrev  0x000000000000229a      0x273 build/kernel/components/drivers/serial/serial.o
 .debug_abbrev  0x000000000000250d      0x1c3 build/kernel/components/drivers/src/completion.o
 .debug_abbrev  0x00000000000026d0      0x1f5 build/kernel/components/drivers/src/dataqueue.o
 .debug_abbrev  0x00000000000028c5      0x30e build/kernel/components/finsh/shell.o
 .debug_abbrev  0x0000000000002bd3       0xbf build/kernel/components/finsh/symbol.o
 .debug_abbrev  0x0000000000002c92      0x278 build/kernel/components/finsh/cmd.o
 .debug_abbrev  0x0000000000002f0a      0x22e build/kernel/components/finsh/msh.o
 .debug_abbrev  0x0000000000003138      0x160 build/kernel/components/finsh/msh_cmd.o
 .debug_abbrev  0x0000000000003298      0x151 build/kernel/components/libc/compilers/minilibc/stdlib.o
 .debug_abbrev  0x00000000000033e9      0x20e build/kernel/components/libc/compilers/minilibc/string.o
 .debug_abbrev  0x00000000000035f7      0x173 /home/ldq/rk-linux/rt-thread/bsp/stm32/libraries/STM32F1xx_HAL/CMSIS/Device/ST/STM32F1xx/Source/Templates/system_stm32f1xx.o
 .debug_abbrev  0x000000000000376a      0x206 /home/ldq/rk-linux/rt-thread/bsp/stm32/libraries/STM32F1xx_HAL/STM32F1xx_HAL_Driver/Src/stm32f1xx_hal_dma.o
 .debug_abbrev  0x0000000000003970      0x2d2 /home/ldq/rk-linux/rt-thread/bsp/stm32/libraries/STM32F1xx_HAL/STM32F1xx_HAL_Driver/Src/stm32f1xx_hal_cortex.o
 .debug_abbrev  0x0000000000003c42      0x28a /home/ldq/rk-linux/rt-thread/bsp/stm32/libraries/STM32F1xx_HAL/STM32F1xx_HAL_Driver/Src/stm32f1xx_hal_rcc.o
 .debug_abbrev  0x0000000000003ecc      0x240 /home/ldq/rk-linux/rt-thread/bsp/stm32/libraries/STM32F1xx_HAL/STM32F1xx_HAL_Driver/Src/stm32f1xx_hal.o
 .debug_abbrev  0x000000000000410c      0x1f0 /home/ldq/rk-linux/rt-thread/bsp/stm32/libraries/STM32F1xx_HAL/STM32F1xx_HAL_Driver/Src/stm32f1xx_hal_gpio.o
 .debug_abbrev  0x00000000000042fc      0x24a /home/ldq/rk-linux/rt-thread/bsp/stm32/libraries/STM32F1xx_HAL/STM32F1xx_HAL_Driver/Src/stm32f1xx_hal_uart.o
 .debug_abbrev  0x0000000000004546      0x27c /home/ldq/rk-linux/rt-thread/bsp/stm32/libraries/HAL_Drivers/drv_gpio.o
 .debug_abbrev  0x00000000000047c2      0x2e6 /home/ldq/rk-linux/rt-thread/bsp/stm32/libraries/HAL_Drivers/drv_usart.o
 .debug_abbrev  0x0000000000004aa8      0x227 /home/ldq/rk-linux/rt-thread/bsp/stm32/libraries/HAL_Drivers/drv_common.o

.debug_line     0x0000000000000000     0x972d
 *(.debug_line)
 .debug_line    0x0000000000000000      0x27a build/applications/main.o
 .debug_line    0x000000000000027a      0x2a7 build/board/board.o
 .debug_line    0x0000000000000521      0x304 build/board/CubeMX_Config/Src/stm32f1xx_hal_msp.o
 .debug_line    0x0000000000000825       0xdf /home/ldq/rk-linux/rt-thread/bsp/stm32/libraries/STM32F1xx_HAL/CMSIS/Device/ST/STM32F1xx/Source/Templates/gcc/startup_stm32f103xe.o
 .debug_line    0x0000000000000904      0x127 build/kernel/src/clock.o
 .debug_line    0x0000000000000a2b      0x1b9 build/kernel/src/components.o
 .debug_line    0x0000000000000be4      0x2ee build/kernel/src/device.o
 .debug_line    0x0000000000000ed2      0x214 build/kernel/src/idle.o
 .debug_line    0x00000000000010e6      0xb3e build/kernel/src/ipc.o
 .debug_line    0x0000000000001c24      0x131 build/kernel/src/irq.o
 .debug_line    0x0000000000001d55      0x5fc build/kernel/src/kservice.o
 .debug_line    0x0000000000002351      0x37a build/kernel/src/mem.o
 .debug_line    0x00000000000026cb      0x310 build/kernel/src/object.o
 .debug_line    0x00000000000029db      0x29b build/kernel/src/scheduler.o
 .debug_line    0x0000000000002c76      0x42a build/kernel/src/thread.o
 .debug_line    0x00000000000030a0      0x3a5 build/kernel/src/timer.o
 .debug_line    0x0000000000003445      0x200 build/kernel/libcpu/arm/cortex-m3/cpuport.o
 .debug_line    0x0000000000003645       0xd8 build/kernel/libcpu/arm/cortex-m3/context_gcc.o
 .debug_line    0x000000000000371d      0x2ac build/kernel/components/drivers/misc/pin.o
 .debug_line    0x00000000000039c9      0x5d3 build/kernel/components/drivers/serial/serial.o
 .debug_line    0x0000000000003f9c      0x1fd build/kernel/components/drivers/src/completion.o
 .debug_line    0x0000000000004199      0x2c9 build/kernel/components/drivers/src/dataqueue.o
 .debug_line    0x0000000000004462      0x3ce build/kernel/components/finsh/shell.o
 .debug_line    0x0000000000004830       0xfb build/kernel/components/finsh/symbol.o
 .debug_line    0x000000000000492b      0x495 build/kernel/components/finsh/cmd.o
 .debug_line    0x0000000000004dc0      0x2a0 build/kernel/components/finsh/msh.o
 .debug_line    0x0000000000005060      0x136 build/kernel/components/finsh/msh_cmd.o
 .debug_line    0x0000000000005196      0x1f0 build/kernel/components/libc/compilers/minilibc/stdlib.o
 .debug_line    0x0000000000005386      0x58a build/kernel/components/libc/compilers/minilibc/string.o
 .debug_line    0x0000000000005910      0x310 /home/ldq/rk-linux/rt-thread/bsp/stm32/libraries/STM32F1xx_HAL/CMSIS/Device/ST/STM32F1xx/Source/Templates/system_stm32f1xx.o
 .debug_line    0x0000000000005c20      0xba1 /home/ldq/rk-linux/rt-thread/bsp/stm32/libraries/STM32F1xx_HAL/STM32F1xx_HAL_Driver/Src/stm32f1xx_hal_dma.o
 .debug_line    0x00000000000067c1      0x559 /home/ldq/rk-linux/rt-thread/bsp/stm32/libraries/STM32F1xx_HAL/STM32F1xx_HAL_Driver/Src/stm32f1xx_hal_cortex.o
 .debug_line    0x0000000000006d1a      0x5c4 /home/ldq/rk-linux/rt-thread/bsp/stm32/libraries/STM32F1xx_HAL/STM32F1xx_HAL_Driver/Src/stm32f1xx_hal_rcc.o
 .debug_line    0x00000000000072de      0x473 /home/ldq/rk-linux/rt-thread/bsp/stm32/libraries/STM32F1xx_HAL/STM32F1xx_HAL_Driver/Src/stm32f1xx_hal.o
 .debug_line    0x0000000000007751      0x4fa /home/ldq/rk-linux/rt-thread/bsp/stm32/libraries/STM32F1xx_HAL/STM32F1xx_HAL_Driver/Src/stm32f1xx_hal_gpio.o
 .debug_line    0x0000000000007c4b      0xbc2 /home/ldq/rk-linux/rt-thread/bsp/stm32/libraries/STM32F1xx_HAL/STM32F1xx_HAL_Driver/Src/stm32f1xx_hal_uart.o
 .debug_line    0x000000000000880d      0x53f /home/ldq/rk-linux/rt-thread/bsp/stm32/libraries/HAL_Drivers/drv_gpio.o
 .debug_line    0x0000000000008d4c      0x647 /home/ldq/rk-linux/rt-thread/bsp/stm32/libraries/HAL_Drivers/drv_usart.o
 .debug_line    0x0000000000009393      0x39a /home/ldq/rk-linux/rt-thread/bsp/stm32/libraries/HAL_Drivers/drv_common.o

.debug_frame    0x0000000000000000     0x5078
 *(.debug_frame)
 .debug_frame   0x0000000000000000       0x34 build/applications/main.o
 .debug_frame   0x0000000000000034       0x34 build/board/board.o
 .debug_frame   0x0000000000000068       0x80 build/board/CubeMX_Config/Src/stm32f1xx_hal_msp.o
 .debug_frame   0x00000000000000e8       0xc0 build/kernel/src/clock.o
 .debug_frame   0x00000000000001a8      0x158 build/kernel/src/components.o
 .debug_frame   0x0000000000000300      0x20c build/kernel/src/device.o
 .debug_frame   0x000000000000050c      0x134 build/kernel/src/idle.o
 .debug_frame   0x0000000000000640      0x6a8 build/kernel/src/ipc.o
 .debug_frame   0x0000000000000ce8       0xcc build/kernel/src/irq.o
 .debug_frame   0x0000000000000db4      0x50c build/kernel/src/kservice.o
 .debug_frame   0x00000000000012c0      0x180 build/kernel/src/mem.o
 .debug_frame   0x0000000000001440      0x27c build/kernel/src/object.o
 .debug_frame   0x00000000000016bc      0x240 build/kernel/src/scheduler.o
 .debug_frame   0x00000000000018fc      0x370 build/kernel/src/thread.o
 .debug_frame   0x0000000000001c6c      0x300 build/kernel/src/timer.o
 .debug_frame   0x0000000000001f6c      0x158 build/kernel/libcpu/arm/cortex-m3/cpuport.o
 .debug_frame   0x00000000000020c4      0x17c build/kernel/components/drivers/misc/pin.o
 .debug_frame   0x0000000000002240      0x2a8 build/kernel/components/drivers/serial/serial.o
 .debug_frame   0x00000000000024e8       0xf4 build/kernel/components/drivers/src/completion.o
 .debug_frame   0x00000000000025dc      0x140 build/kernel/components/drivers/src/dataqueue.o
 .debug_frame   0x000000000000271c      0x258 build/kernel/components/finsh/shell.o
 .debug_frame   0x0000000000002974      0x2cc build/kernel/components/finsh/cmd.o
 .debug_frame   0x0000000000002c40      0x130 build/kernel/components/finsh/msh.o
 .debug_frame   0x0000000000002d70       0x80 build/kernel/components/finsh/msh_cmd.o
 .debug_frame   0x0000000000002df0       0xf0 build/kernel/components/libc/compilers/minilibc/stdlib.o
 .debug_frame   0x0000000000002ee0      0x440 build/kernel/components/libc/compilers/minilibc/string.o
 .debug_frame   0x0000000000003320       0x58 /home/ldq/rk-linux/rt-thread/bsp/stm32/libraries/STM32F1xx_HAL/CMSIS/Device/ST/STM32F1xx/Source/Templates/system_stm32f1xx.o
 .debug_frame   0x0000000000003378      0x20c /home/ldq/rk-linux/rt-thread/bsp/stm32/libraries/STM32F1xx_HAL/STM32F1xx_HAL_Driver/Src/stm32f1xx_hal_dma.o
 .debug_frame   0x0000000000003584      0x428 /home/ldq/rk-linux/rt-thread/bsp/stm32/libraries/STM32F1xx_HAL/STM32F1xx_HAL_Driver/Src/stm32f1xx_hal_cortex.o
 .debug_frame   0x00000000000039ac      0x21c /home/ldq/rk-linux/rt-thread/bsp/stm32/libraries/STM32F1xx_HAL/STM32F1xx_HAL_Driver/Src/stm32f1xx_hal_rcc.o
 .debug_frame   0x0000000000003bc8      0x2fc /home/ldq/rk-linux/rt-thread/bsp/stm32/libraries/STM32F1xx_HAL/STM32F1xx_HAL_Driver/Src/stm32f1xx_hal.o
 .debug_frame   0x0000000000003ec4      0x14c /home/ldq/rk-linux/rt-thread/bsp/stm32/libraries/STM32F1xx_HAL/STM32F1xx_HAL_Driver/Src/stm32f1xx_hal_gpio.o
 .debug_frame   0x0000000000004010      0x83c /home/ldq/rk-linux/rt-thread/bsp/stm32/libraries/STM32F1xx_HAL/STM32F1xx_HAL_Driver/Src/stm32f1xx_hal_uart.o
 .debug_frame   0x000000000000484c      0x28c /home/ldq/rk-linux/rt-thread/bsp/stm32/libraries/HAL_Drivers/drv_gpio.o
 .debug_frame   0x0000000000004ad8      0x294 /home/ldq/rk-linux/rt-thread/bsp/stm32/libraries/HAL_Drivers/drv_usart.o
 .debug_frame   0x0000000000004d6c      0x178 /home/ldq/rk-linux/rt-thread/bsp/stm32/libraries/HAL_Drivers/drv_common.o
 .debug_frame   0x0000000000004ee4       0x5c /home/ldq/rk-linux/prebuilts/gcc-arm-none-eabi-7-2018-q2-update/bin/../lib/gcc/arm-none-eabi/7.3.1/../../../../arm-none-eabi/lib/thumb/v7-m/libc.a(lib_a-__call_atexit.o)
 .debug_frame   0x0000000000004f40       0x20 /home/ldq/rk-linux/prebuilts/gcc-arm-none-eabi-7-2018-q2-update/bin/../lib/gcc/arm-none-eabi/7.3.1/../../../../arm-none-eabi/lib/thumb/v7-m/libc.a(lib_a-atexit.o)
 .debug_frame   0x0000000000004f60       0x34 /home/ldq/rk-linux/prebuilts/gcc-arm-none-eabi-7-2018-q2-update/bin/../lib/gcc/arm-none-eabi/7.3.1/../../../../arm-none-eabi/lib/thumb/v7-m/libc.a(lib_a-fini.o)
 .debug_frame   0x0000000000004f94       0xb0 /home/ldq/rk-linux/prebuilts/gcc-arm-none-eabi-7-2018-q2-update/bin/../lib/gcc/arm-none-eabi/7.3.1/../../../../arm-none-eabi/lib/thumb/v7-m/libc.a(lib_a-lock.o)
 .debug_frame   0x0000000000005044       0x34 /home/ldq/rk-linux/prebuilts/gcc-arm-none-eabi-7-2018-q2-update/bin/../lib/gcc/arm-none-eabi/7.3.1/../../../../arm-none-eabi/lib/thumb/v7-m/libc.a(lib_a-__atexit.o)

.debug_str      0x0000000000000000     0x549b
 *(.debug_str)
 .debug_str     0x0000000000000000      0x27e build/applications/main.o
                                        0x2ea (size before relaxing)
 .debug_str     0x000000000000027e      0x157 build/board/board.o
                                        0x401 (size before relaxing)
 .debug_str     0x00000000000003d5      0x449 build/board/CubeMX_Config/Src/stm32f1xx_hal_msp.o
                                        0x734 (size before relaxing)
 .debug_str     0x000000000000081e       0x92 /home/ldq/rk-linux/rt-thread/bsp/stm32/libraries/STM32F1xx_HAL/CMSIS/Device/ST/STM32F1xx/Source/Templates/gcc/startup_stm32f103xe.o
                                         0xd1 (size before relaxing)
 .debug_str     0x00000000000008b0      0x192 build/kernel/src/clock.o
                                        0x3cf (size before relaxing)
 .debug_str     0x0000000000000a42      0x120 build/kernel/src/components.o
                                        0x480 (size before relaxing)
 .debug_str     0x0000000000000b62      0x52f build/kernel/src/device.o
                                        0x7e5 (size before relaxing)
 .debug_str     0x0000000000001091      0x11f build/kernel/src/idle.o
                                        0x47a (size before relaxing)
 .debug_str     0x00000000000011b0      0x484 build/kernel/src/ipc.o
                                        0x976 (size before relaxing)
 .debug_str     0x0000000000001634       0xdb build/kernel/src/irq.o
                                        0x2cf (size before relaxing)
 .debug_str     0x000000000000170f      0x312 build/kernel/src/kservice.o
                                        0x921 (size before relaxing)
 .debug_str     0x0000000000001a21      0x21f build/kernel/src/mem.o
                                        0x4e2 (size before relaxing)
 .debug_str     0x0000000000001c40      0x2a1 build/kernel/src/object.o
                                        0x6ef (size before relaxing)
 .debug_str     0x0000000000001ee1      0x200 build/kernel/src/scheduler.o
                                        0x617 (size before relaxing)
 .debug_str     0x00000000000020e1      0x1cf build/kernel/src/thread.o
                                        0x75d (size before relaxing)
 .debug_str     0x00000000000022b0      0x1b9 build/kernel/src/timer.o
                                        0x650 (size before relaxing)
 .debug_str     0x0000000000002469      0x1ae build/kernel/libcpu/arm/cortex-m3/cpuport.o
                                        0x3f3 (size before relaxing)
 .debug_str     0x0000000000002617       0x40 build/kernel/libcpu/arm/cortex-m3/context_gcc.o
                                         0x8d (size before relaxing)
 .debug_str     0x0000000000002657      0x1b3 build/kernel/components/drivers/misc/pin.o
                                        0x7b6 (size before relaxing)
 .debug_str     0x000000000000280a      0x332 build/kernel/components/drivers/serial/serial.o
                                        0x8e2 (size before relaxing)
 .debug_str     0x0000000000002b3c       0x7a build/kernel/components/drivers/src/completion.o
                                        0x447 (size before relaxing)
 .debug_str     0x0000000000002bb6       0x9f build/kernel/components/drivers/src/dataqueue.o
                                        0x4ea (size before relaxing)
 .debug_str     0x0000000000002c55      0x27b build/kernel/components/finsh/shell.o
                                        0x98d (size before relaxing)
 .debug_str     0x0000000000002ed0       0x37 build/kernel/components/finsh/symbol.o
                                        0x2ab (size before relaxing)
 .debug_str     0x0000000000002f07      0x76d build/kernel/components/finsh/cmd.o
                                       0x1102 (size before relaxing)
 .debug_str     0x0000000000003674      0x138 build/kernel/components/finsh/msh.o
                                        0x3e5 (size before relaxing)
 .debug_str     0x00000000000037ac      0x10b build/kernel/components/finsh/msh_cmd.o
                                        0x3b7 (size before relaxing)
 .debug_str     0x00000000000038b7       0x5b build/kernel/components/libc/compilers/minilibc/stdlib.o
                                        0x260 (size before relaxing)
 .debug_str     0x0000000000003912      0x13a build/kernel/components/libc/compilers/minilibc/string.o
                                        0x3c5 (size before relaxing)
 .debug_str     0x0000000000003a4c      0x104 /home/ldq/rk-linux/rt-thread/bsp/stm32/libraries/STM32F1xx_HAL/CMSIS/Device/ST/STM32F1xx/Source/Templates/system_stm32f1xx.o
                                        0x3f3 (size before relaxing)
 .debug_str     0x0000000000003b50      0x28f /home/ldq/rk-linux/rt-thread/bsp/stm32/libraries/STM32F1xx_HAL/STM32F1xx_HAL_Driver/Src/stm32f1xx_hal_dma.o
                                        0x746 (size before relaxing)
 .debug_str     0x0000000000003ddf      0x6c9 /home/ldq/rk-linux/rt-thread/bsp/stm32/libraries/STM32F1xx_HAL/STM32F1xx_HAL_Driver/Src/stm32f1xx_hal_cortex.o
                                        0xad2 (size before relaxing)
 .debug_str     0x00000000000044a8      0x260 /home/ldq/rk-linux/rt-thread/bsp/stm32/libraries/STM32F1xx_HAL/STM32F1xx_HAL_Driver/Src/stm32f1xx_hal_rcc.o
                                        0x700 (size before relaxing)
 .debug_str     0x0000000000004708      0x222 /home/ldq/rk-linux/rt-thread/bsp/stm32/libraries/STM32F1xx_HAL/STM32F1xx_HAL_Driver/Src/stm32f1xx_hal.o
                                        0x965 (size before relaxing)
 .debug_str     0x000000000000492a      0x195 /home/ldq/rk-linux/rt-thread/bsp/stm32/libraries/STM32F1xx_HAL/STM32F1xx_HAL_Driver/Src/stm32f1xx_hal_gpio.o
                                        0x550 (size before relaxing)
 .debug_str     0x0000000000004abf      0x551 /home/ldq/rk-linux/rt-thread/bsp/stm32/libraries/STM32F1xx_HAL/STM32F1xx_HAL_Driver/Src/stm32f1xx_hal_uart.o
                                        0xc32 (size before relaxing)
 .debug_str     0x0000000000005010      0x1db /home/ldq/rk-linux/rt-thread/bsp/stm32/libraries/HAL_Drivers/drv_gpio.o
                                        0xcdb (size before relaxing)
 .debug_str     0x00000000000051eb      0x1bf /home/ldq/rk-linux/rt-thread/bsp/stm32/libraries/HAL_Drivers/drv_usart.o
                                       0x115f (size before relaxing)
 .debug_str     0x00000000000053aa       0xf1 /home/ldq/rk-linux/rt-thread/bsp/stm32/libraries/HAL_Drivers/drv_common.o
                                        0x8bf (size before relaxing)

.debug_loc      0x0000000000000000     0xa592
 *(.debug_loc)
 .debug_loc     0x0000000000000000       0x50 build/applications/main.o
 .debug_loc     0x0000000000000050       0x52 build/board/board.o
 .debug_loc     0x00000000000000a2       0xfc build/board/CubeMX_Config/Src/stm32f1xx_hal_msp.o
 .debug_loc     0x000000000000019e      0x184 build/kernel/src/clock.o
 .debug_loc     0x0000000000000322      0x2a8 build/kernel/src/components.o
 .debug_loc     0x00000000000005ca      0x454 build/kernel/src/device.o
 .debug_loc     0x0000000000000a1e      0x274 build/kernel/src/idle.o
 .debug_loc     0x0000000000000c92      0xe34 build/kernel/src/ipc.o
 .debug_loc     0x0000000000001ac6      0x1a8 build/kernel/src/irq.o
 .debug_loc     0x0000000000001c6e      0xb00 build/kernel/src/kservice.o
 .debug_loc     0x000000000000276e      0x320 build/kernel/src/mem.o
 .debug_loc     0x0000000000002a8e      0x554 build/kernel/src/object.o
 .debug_loc     0x0000000000002fe2      0x474 build/kernel/src/scheduler.o
 .debug_loc     0x0000000000003456      0x748 build/kernel/src/thread.o
 .debug_loc     0x0000000000003b9e      0x658 build/kernel/src/timer.o
 .debug_loc     0x00000000000041f6      0x284 build/kernel/libcpu/arm/cortex-m3/cpuport.o
 .debug_loc     0x000000000000447a      0x320 build/kernel/components/drivers/misc/pin.o
 .debug_loc     0x000000000000479a      0x5a2 build/kernel/components/drivers/serial/serial.o
 .debug_loc     0x0000000000004d3c      0x204 build/kernel/components/drivers/src/completion.o
 .debug_loc     0x0000000000004f40      0x2a4 build/kernel/components/drivers/src/dataqueue.o
 .debug_loc     0x00000000000051e4      0x4c0 build/kernel/components/finsh/shell.o
 .debug_loc     0x00000000000056a4      0x582 build/kernel/components/finsh/cmd.o
 .debug_loc     0x0000000000005c26      0x282 build/kernel/components/finsh/msh.o
 .debug_loc     0x0000000000005ea8       0xfc build/kernel/components/finsh/msh_cmd.o
 .debug_loc     0x0000000000005fa4      0x1f8 build/kernel/components/libc/compilers/minilibc/stdlib.o
 .debug_loc     0x000000000000619c      0x91a build/kernel/components/libc/compilers/minilibc/string.o
 .debug_loc     0x0000000000006ab6       0xa0 /home/ldq/rk-linux/rt-thread/bsp/stm32/libraries/STM32F1xx_HAL/CMSIS/Device/ST/STM32F1xx/Source/Templates/system_stm32f1xx.o
 .debug_loc     0x0000000000006b56      0x470 /home/ldq/rk-linux/rt-thread/bsp/stm32/libraries/STM32F1xx_HAL/STM32F1xx_HAL_Driver/Src/stm32f1xx_hal_dma.o
 .debug_loc     0x0000000000006fc6      0x8f8 /home/ldq/rk-linux/rt-thread/bsp/stm32/libraries/STM32F1xx_HAL/STM32F1xx_HAL_Driver/Src/stm32f1xx_hal_cortex.o
 .debug_loc     0x00000000000078be      0x444 /home/ldq/rk-linux/rt-thread/bsp/stm32/libraries/STM32F1xx_HAL/STM32F1xx_HAL_Driver/Src/stm32f1xx_hal_rcc.o
 .debug_loc     0x0000000000007d02      0x628 /home/ldq/rk-linux/rt-thread/bsp/stm32/libraries/STM32F1xx_HAL/STM32F1xx_HAL_Driver/Src/stm32f1xx_hal.o
 .debug_loc     0x000000000000832a      0x2d4 /home/ldq/rk-linux/rt-thread/bsp/stm32/libraries/STM32F1xx_HAL/STM32F1xx_HAL_Driver/Src/stm32f1xx_hal_gpio.o
 .debug_loc     0x00000000000085fe     0x1250 /home/ldq/rk-linux/rt-thread/bsp/stm32/libraries/STM32F1xx_HAL/STM32F1xx_HAL_Driver/Src/stm32f1xx_hal_uart.o
 .debug_loc     0x000000000000984e      0x50c /home/ldq/rk-linux/rt-thread/bsp/stm32/libraries/HAL_Drivers/drv_gpio.o
 .debug_loc     0x0000000000009d5a      0x564 /home/ldq/rk-linux/rt-thread/bsp/stm32/libraries/HAL_Drivers/drv_usart.o
 .debug_loc     0x000000000000a2be      0x2d4 /home/ldq/rk-linux/rt-thread/bsp/stm32/libraries/HAL_Drivers/drv_common.o

.debug_macinfo
 *(.debug_macinfo)

.debug_weaknames
 *(.debug_weaknames)

.debug_funcnames
 *(.debug_funcnames)

.debug_typenames
 *(.debug_typenames)

.debug_varnames
 *(.debug_varnames)
OUTPUT(rt-thread.elf elf32-littlearm)

.debug_ranges   0x0000000000000000     0x1288
 .debug_ranges  0x0000000000000000       0x10 build/applications/main.o
 .debug_ranges  0x0000000000000010       0x10 build/board/board.o
 .debug_ranges  0x0000000000000020       0x20 build/board/CubeMX_Config/Src/stm32f1xx_hal_msp.o
 .debug_ranges  0x0000000000000040       0x20 /home/ldq/rk-linux/rt-thread/bsp/stm32/libraries/STM32F1xx_HAL/CMSIS/Device/ST/STM32F1xx/Source/Templates/gcc/startup_stm32f103xe.o
 .debug_ranges  0x0000000000000060       0x30 build/kernel/src/clock.o
 .debug_ranges  0x0000000000000090       0x58 build/kernel/src/components.o
 .debug_ranges  0x00000000000000e8       0x78 build/kernel/src/device.o
 .debug_ranges  0x0000000000000160       0x48 build/kernel/src/idle.o
 .debug_ranges  0x00000000000001a8      0x170 build/kernel/src/ipc.o
 .debug_ranges  0x0000000000000318       0x30 build/kernel/src/irq.o
 .debug_ranges  0x0000000000000348      0x108 build/kernel/src/kservice.o
 .debug_ranges  0x0000000000000450       0x58 build/kernel/src/mem.o
 .debug_ranges  0x00000000000004a8       0x88 build/kernel/src/object.o
 .debug_ranges  0x0000000000000530       0xb0 build/kernel/src/scheduler.o
 .debug_ranges  0x00000000000005e0       0xc0 build/kernel/src/thread.o
 .debug_ranges  0x00000000000006a0       0xc0 build/kernel/src/timer.o
 .debug_ranges  0x0000000000000760       0x70 build/kernel/libcpu/arm/cortex-m3/cpuport.o
 .debug_ranges  0x00000000000007d0       0x58 build/kernel/components/drivers/misc/pin.o
 .debug_ranges  0x0000000000000828       0xe0 build/kernel/components/drivers/serial/serial.o
 .debug_ranges  0x0000000000000908       0x38 build/kernel/components/drivers/src/completion.o
 .debug_ranges  0x0000000000000940       0x48 build/kernel/components/drivers/src/dataqueue.o
 .debug_ranges  0x0000000000000988       0x90 build/kernel/components/finsh/shell.o
 .debug_ranges  0x0000000000000a18       0x98 build/kernel/components/finsh/cmd.o
 .debug_ranges  0x0000000000000ab0       0x48 build/kernel/components/finsh/msh.o
 .debug_ranges  0x0000000000000af8       0x20 build/kernel/components/finsh/msh_cmd.o
 .debug_ranges  0x0000000000000b18       0x38 build/kernel/components/libc/compilers/minilibc/stdlib.o
 .debug_ranges  0x0000000000000b50       0xe0 build/kernel/components/libc/compilers/minilibc/string.o
 .debug_ranges  0x0000000000000c30       0x18 /home/ldq/rk-linux/rt-thread/bsp/stm32/libraries/STM32F1xx_HAL/CMSIS/Device/ST/STM32F1xx/Source/Templates/system_stm32f1xx.o
 .debug_ranges  0x0000000000000c48       0x70 /home/ldq/rk-linux/rt-thread/bsp/stm32/libraries/STM32F1xx_HAL/STM32F1xx_HAL_Driver/Src/stm32f1xx_hal_dma.o
 .debug_ranges  0x0000000000000cb8       0xf0 /home/ldq/rk-linux/rt-thread/bsp/stm32/libraries/STM32F1xx_HAL/STM32F1xx_HAL_Driver/Src/stm32f1xx_hal_cortex.o
 .debug_ranges  0x0000000000000da8       0x80 /home/ldq/rk-linux/rt-thread/bsp/stm32/libraries/STM32F1xx_HAL/STM32F1xx_HAL_Driver/Src/stm32f1xx_hal_rcc.o
 .debug_ranges  0x0000000000000e28       0xc0 /home/ldq/rk-linux/rt-thread/bsp/stm32/libraries/STM32F1xx_HAL/STM32F1xx_HAL_Driver/Src/stm32f1xx_hal.o
 .debug_ranges  0x0000000000000ee8       0x48 /home/ldq/rk-linux/rt-thread/bsp/stm32/libraries/STM32F1xx_HAL/STM32F1xx_HAL_Driver/Src/stm32f1xx_hal_gpio.o
 .debug_ranges  0x0000000000000f30      0x1c0 /home/ldq/rk-linux/rt-thread/bsp/stm32/libraries/STM32F1xx_HAL/STM32F1xx_HAL_Driver/Src/stm32f1xx_hal_uart.o
 .debug_ranges  0x00000000000010f0       0xa0 /home/ldq/rk-linux/rt-thread/bsp/stm32/libraries/HAL_Drivers/drv_gpio.o
 .debug_ranges  0x0000000000001190       0x98 /home/ldq/rk-linux/rt-thread/bsp/stm32/libraries/HAL_Drivers/drv_usart.o
 .debug_ranges  0x0000000000001228       0x60 /home/ldq/rk-linux/rt-thread/bsp/stm32/libraries/HAL_Drivers/drv_common.o

Cross Reference Table

Symbol                                            File
ADC1_2_IRQHandler                                 /home/ldq/rk-linux/rt-thread/bsp/stm32/libraries/STM32F1xx_HAL/CMSIS/Device/ST/STM32F1xx/Source/Templates/gcc/startup_stm32f103xe.o
ADC3_IRQHandler                                   /home/ldq/rk-linux/rt-thread/bsp/stm32/libraries/STM32F1xx_HAL/CMSIS/Device/ST/STM32F1xx/Source/Templates/gcc/startup_stm32f103xe.o
AHBPrescTable                                     /home/ldq/rk-linux/rt-thread/bsp/stm32/libraries/STM32F1xx_HAL/CMSIS/Device/ST/STM32F1xx/Source/Templates/system_stm32f1xx.o
                                                  /home/ldq/rk-linux/rt-thread/bsp/stm32/libraries/STM32F1xx_HAL/STM32F1xx_HAL_Driver/Src/stm32f1xx_hal_rcc.o
APBPrescTable                                     /home/ldq/rk-linux/rt-thread/bsp/stm32/libraries/STM32F1xx_HAL/CMSIS/Device/ST/STM32F1xx/Source/Templates/system_stm32f1xx.o
                                                  /home/ldq/rk-linux/rt-thread/bsp/stm32/libraries/STM32F1xx_HAL/STM32F1xx_HAL_Driver/Src/stm32f1xx_hal_rcc.o
BusFault_Handler                                  /home/ldq/rk-linux/rt-thread/bsp/stm32/libraries/STM32F1xx_HAL/CMSIS/Device/ST/STM32F1xx/Source/Templates/gcc/startup_stm32f103xe.o
CAN1_RX1_IRQHandler                               /home/ldq/rk-linux/rt-thread/bsp/stm32/libraries/STM32F1xx_HAL/CMSIS/Device/ST/STM32F1xx/Source/Templates/gcc/startup_stm32f103xe.o
CAN1_SCE_IRQHandler                               /home/ldq/rk-linux/rt-thread/bsp/stm32/libraries/STM32F1xx_HAL/CMSIS/Device/ST/STM32F1xx/Source/Templates/gcc/startup_stm32f103xe.o
DMA1_Channel1_IRQHandler                          /home/ldq/rk-linux/rt-thread/bsp/stm32/libraries/STM32F1xx_HAL/CMSIS/Device/ST/STM32F1xx/Source/Templates/gcc/startup_stm32f103xe.o
DMA1_Channel2_IRQHandler                          /home/ldq/rk-linux/rt-thread/bsp/stm32/libraries/STM32F1xx_HAL/CMSIS/Device/ST/STM32F1xx/Source/Templates/gcc/startup_stm32f103xe.o
DMA1_Channel3_IRQHandler                          /home/ldq/rk-linux/rt-thread/bsp/stm32/libraries/STM32F1xx_HAL/CMSIS/Device/ST/STM32F1xx/Source/Templates/gcc/startup_stm32f103xe.o
DMA1_Channel4_IRQHandler                          /home/ldq/rk-linux/rt-thread/bsp/stm32/libraries/STM32F1xx_HAL/CMSIS/Device/ST/STM32F1xx/Source/Templates/gcc/startup_stm32f103xe.o
DMA1_Channel5_IRQHandler                          /home/ldq/rk-linux/rt-thread/bsp/stm32/libraries/HAL_Drivers/drv_usart.o
                                                  /home/ldq/rk-linux/rt-thread/bsp/stm32/libraries/STM32F1xx_HAL/CMSIS/Device/ST/STM32F1xx/Source/Templates/gcc/startup_stm32f103xe.o
DMA1_Channel6_IRQHandler                          /home/ldq/rk-linux/rt-thread/bsp/stm32/libraries/STM32F1xx_HAL/CMSIS/Device/ST/STM32F1xx/Source/Templates/gcc/startup_stm32f103xe.o
DMA1_Channel7_IRQHandler                          /home/ldq/rk-linux/rt-thread/bsp/stm32/libraries/STM32F1xx_HAL/CMSIS/Device/ST/STM32F1xx/Source/Templates/gcc/startup_stm32f103xe.o
DMA2_Channel1_IRQHandler                          /home/ldq/rk-linux/rt-thread/bsp/stm32/libraries/STM32F1xx_HAL/CMSIS/Device/ST/STM32F1xx/Source/Templates/gcc/startup_stm32f103xe.o
DMA2_Channel2_IRQHandler                          /home/ldq/rk-linux/rt-thread/bsp/stm32/libraries/STM32F1xx_HAL/CMSIS/Device/ST/STM32F1xx/Source/Templates/gcc/startup_stm32f103xe.o
DMA2_Channel3_IRQHandler                          /home/ldq/rk-linux/rt-thread/bsp/stm32/libraries/STM32F1xx_HAL/CMSIS/Device/ST/STM32F1xx/Source/Templates/gcc/startup_stm32f103xe.o
DMA2_Channel4_5_IRQHandler                        /home/ldq/rk-linux/rt-thread/bsp/stm32/libraries/STM32F1xx_HAL/CMSIS/Device/ST/STM32F1xx/Source/Templates/gcc/startup_stm32f103xe.o
DebugMon_Handler                                  /home/ldq/rk-linux/rt-thread/bsp/stm32/libraries/STM32F1xx_HAL/CMSIS/Device/ST/STM32F1xx/Source/Templates/gcc/startup_stm32f103xe.o
Default_Handler                                   /home/ldq/rk-linux/rt-thread/bsp/stm32/libraries/STM32F1xx_HAL/CMSIS/Device/ST/STM32F1xx/Source/Templates/gcc/startup_stm32f103xe.o
EXTI0_IRQHandler                                  /home/ldq/rk-linux/rt-thread/bsp/stm32/libraries/HAL_Drivers/drv_gpio.o
                                                  /home/ldq/rk-linux/rt-thread/bsp/stm32/libraries/STM32F1xx_HAL/CMSIS/Device/ST/STM32F1xx/Source/Templates/gcc/startup_stm32f103xe.o
EXTI15_10_IRQHandler                              /home/ldq/rk-linux/rt-thread/bsp/stm32/libraries/HAL_Drivers/drv_gpio.o
                                                  /home/ldq/rk-linux/rt-thread/bsp/stm32/libraries/STM32F1xx_HAL/CMSIS/Device/ST/STM32F1xx/Source/Templates/gcc/startup_stm32f103xe.o
EXTI1_IRQHandler                                  /home/ldq/rk-linux/rt-thread/bsp/stm32/libraries/HAL_Drivers/drv_gpio.o
                                                  /home/ldq/rk-linux/rt-thread/bsp/stm32/libraries/STM32F1xx_HAL/CMSIS/Device/ST/STM32F1xx/Source/Templates/gcc/startup_stm32f103xe.o
EXTI2_IRQHandler                                  /home/ldq/rk-linux/rt-thread/bsp/stm32/libraries/HAL_Drivers/drv_gpio.o
                                                  /home/ldq/rk-linux/rt-thread/bsp/stm32/libraries/STM32F1xx_HAL/CMSIS/Device/ST/STM32F1xx/Source/Templates/gcc/startup_stm32f103xe.o
EXTI3_IRQHandler                                  /home/ldq/rk-linux/rt-thread/bsp/stm32/libraries/HAL_Drivers/drv_gpio.o
                                                  /home/ldq/rk-linux/rt-thread/bsp/stm32/libraries/STM32F1xx_HAL/CMSIS/Device/ST/STM32F1xx/Source/Templates/gcc/startup_stm32f103xe.o
EXTI4_IRQHandler                                  /home/ldq/rk-linux/rt-thread/bsp/stm32/libraries/HAL_Drivers/drv_gpio.o
                                                  /home/ldq/rk-linux/rt-thread/bsp/stm32/libraries/STM32F1xx_HAL/CMSIS/Device/ST/STM32F1xx/Source/Templates/gcc/startup_stm32f103xe.o
EXTI9_5_IRQHandler                                /home/ldq/rk-linux/rt-thread/bsp/stm32/libraries/HAL_Drivers/drv_gpio.o
                                                  /home/ldq/rk-linux/rt-thread/bsp/stm32/libraries/STM32F1xx_HAL/CMSIS/Device/ST/STM32F1xx/Source/Templates/gcc/startup_stm32f103xe.o
FLASH_IRQHandler                                  /home/ldq/rk-linux/rt-thread/bsp/stm32/libraries/STM32F1xx_HAL/CMSIS/Device/ST/STM32F1xx/Source/Templates/gcc/startup_stm32f103xe.o
FSMC_IRQHandler                                   /home/ldq/rk-linux/rt-thread/bsp/stm32/libraries/STM32F1xx_HAL/CMSIS/Device/ST/STM32F1xx/Source/Templates/gcc/startup_stm32f103xe.o
HAL_DBGMCU_DisableDBGSleepMode                    /home/ldq/rk-linux/rt-thread/bsp/stm32/libraries/STM32F1xx_HAL/STM32F1xx_HAL_Driver/Src/stm32f1xx_hal.o
HAL_DBGMCU_DisableDBGStandbyMode                  /home/ldq/rk-linux/rt-thread/bsp/stm32/libraries/STM32F1xx_HAL/STM32F1xx_HAL_Driver/Src/stm32f1xx_hal.o
HAL_DBGMCU_DisableDBGStopMode                     /home/ldq/rk-linux/rt-thread/bsp/stm32/libraries/STM32F1xx_HAL/STM32F1xx_HAL_Driver/Src/stm32f1xx_hal.o
HAL_DBGMCU_EnableDBGSleepMode                     /home/ldq/rk-linux/rt-thread/bsp/stm32/libraries/STM32F1xx_HAL/STM32F1xx_HAL_Driver/Src/stm32f1xx_hal.o
HAL_DBGMCU_EnableDBGStandbyMode                   /home/ldq/rk-linux/rt-thread/bsp/stm32/libraries/STM32F1xx_HAL/STM32F1xx_HAL_Driver/Src/stm32f1xx_hal.o
HAL_DBGMCU_EnableDBGStopMode                      /home/ldq/rk-linux/rt-thread/bsp/stm32/libraries/STM32F1xx_HAL/STM32F1xx_HAL_Driver/Src/stm32f1xx_hal.o
HAL_DMA_Abort                                     /home/ldq/rk-linux/rt-thread/bsp/stm32/libraries/STM32F1xx_HAL/STM32F1xx_HAL_Driver/Src/stm32f1xx_hal_dma.o
                                                  /home/ldq/rk-linux/rt-thread/bsp/stm32/libraries/STM32F1xx_HAL/STM32F1xx_HAL_Driver/Src/stm32f1xx_hal_uart.o
HAL_DMA_Abort_IT                                  /home/ldq/rk-linux/rt-thread/bsp/stm32/libraries/STM32F1xx_HAL/STM32F1xx_HAL_Driver/Src/stm32f1xx_hal_dma.o
                                                  /home/ldq/rk-linux/rt-thread/bsp/stm32/libraries/STM32F1xx_HAL/STM32F1xx_HAL_Driver/Src/stm32f1xx_hal_uart.o
HAL_DMA_DeInit                                    /home/ldq/rk-linux/rt-thread/bsp/stm32/libraries/STM32F1xx_HAL/STM32F1xx_HAL_Driver/Src/stm32f1xx_hal_dma.o
                                                  /home/ldq/rk-linux/rt-thread/bsp/stm32/libraries/HAL_Drivers/drv_usart.o
HAL_DMA_GetError                                  /home/ldq/rk-linux/rt-thread/bsp/stm32/libraries/STM32F1xx_HAL/STM32F1xx_HAL_Driver/Src/stm32f1xx_hal_dma.o
HAL_DMA_GetState                                  /home/ldq/rk-linux/rt-thread/bsp/stm32/libraries/STM32F1xx_HAL/STM32F1xx_HAL_Driver/Src/stm32f1xx_hal_dma.o
HAL_DMA_IRQHandler                                /home/ldq/rk-linux/rt-thread/bsp/stm32/libraries/STM32F1xx_HAL/STM32F1xx_HAL_Driver/Src/stm32f1xx_hal_dma.o
                                                  /home/ldq/rk-linux/rt-thread/bsp/stm32/libraries/HAL_Drivers/drv_usart.o
HAL_DMA_Init                                      /home/ldq/rk-linux/rt-thread/bsp/stm32/libraries/STM32F1xx_HAL/STM32F1xx_HAL_Driver/Src/stm32f1xx_hal_dma.o
                                                  /home/ldq/rk-linux/rt-thread/bsp/stm32/libraries/HAL_Drivers/drv_usart.o
HAL_DMA_PollForTransfer                           /home/ldq/rk-linux/rt-thread/bsp/stm32/libraries/STM32F1xx_HAL/STM32F1xx_HAL_Driver/Src/stm32f1xx_hal_dma.o
HAL_DMA_RegisterCallback                          /home/ldq/rk-linux/rt-thread/bsp/stm32/libraries/STM32F1xx_HAL/STM32F1xx_HAL_Driver/Src/stm32f1xx_hal_dma.o
HAL_DMA_Start                                     /home/ldq/rk-linux/rt-thread/bsp/stm32/libraries/STM32F1xx_HAL/STM32F1xx_HAL_Driver/Src/stm32f1xx_hal_dma.o
HAL_DMA_Start_IT                                  /home/ldq/rk-linux/rt-thread/bsp/stm32/libraries/STM32F1xx_HAL/STM32F1xx_HAL_Driver/Src/stm32f1xx_hal_dma.o
                                                  /home/ldq/rk-linux/rt-thread/bsp/stm32/libraries/STM32F1xx_HAL/STM32F1xx_HAL_Driver/Src/stm32f1xx_hal_uart.o
HAL_DMA_UnRegisterCallback                        /home/ldq/rk-linux/rt-thread/bsp/stm32/libraries/STM32F1xx_HAL/STM32F1xx_HAL_Driver/Src/stm32f1xx_hal_dma.o
HAL_DeInit                                        /home/ldq/rk-linux/rt-thread/bsp/stm32/libraries/STM32F1xx_HAL/STM32F1xx_HAL_Driver/Src/stm32f1xx_hal.o
HAL_Delay                                         /home/ldq/rk-linux/rt-thread/bsp/stm32/libraries/HAL_Drivers/drv_common.o
                                                  /home/ldq/rk-linux/rt-thread/bsp/stm32/libraries/STM32F1xx_HAL/STM32F1xx_HAL_Driver/Src/stm32f1xx_hal.o
HAL_GPIOEx_ConfigEventout                         /home/ldq/rk-linux/rt-thread/bsp/stm32/libraries/STM32F1xx_HAL/STM32F1xx_HAL_Driver/Src/stm32f1xx_hal_gpio_ex.o
HAL_GPIOEx_DisableEventout                        /home/ldq/rk-linux/rt-thread/bsp/stm32/libraries/STM32F1xx_HAL/STM32F1xx_HAL_Driver/Src/stm32f1xx_hal_gpio_ex.o
HAL_GPIOEx_EnableEventout                         /home/ldq/rk-linux/rt-thread/bsp/stm32/libraries/STM32F1xx_HAL/STM32F1xx_HAL_Driver/Src/stm32f1xx_hal_gpio_ex.o
HAL_GPIO_DeInit                                   /home/ldq/rk-linux/rt-thread/bsp/stm32/libraries/STM32F1xx_HAL/STM32F1xx_HAL_Driver/Src/stm32f1xx_hal_gpio.o
                                                  /home/ldq/rk-linux/rt-thread/bsp/stm32/libraries/HAL_Drivers/drv_gpio.o
                                                  build/board/CubeMX_Config/Src/stm32f1xx_hal_msp.o
HAL_GPIO_EXTI_Callback                            /home/ldq/rk-linux/rt-thread/bsp/stm32/libraries/HAL_Drivers/drv_gpio.o
                                                  /home/ldq/rk-linux/rt-thread/bsp/stm32/libraries/STM32F1xx_HAL/STM32F1xx_HAL_Driver/Src/stm32f1xx_hal_gpio.o
HAL_GPIO_EXTI_IRQHandler                          /home/ldq/rk-linux/rt-thread/bsp/stm32/libraries/STM32F1xx_HAL/STM32F1xx_HAL_Driver/Src/stm32f1xx_hal_gpio.o
                                                  /home/ldq/rk-linux/rt-thread/bsp/stm32/libraries/HAL_Drivers/drv_gpio.o
HAL_GPIO_Init                                     /home/ldq/rk-linux/rt-thread/bsp/stm32/libraries/STM32F1xx_HAL/STM32F1xx_HAL_Driver/Src/stm32f1xx_hal_gpio.o
                                                  /home/ldq/rk-linux/rt-thread/bsp/stm32/libraries/HAL_Drivers/drv_gpio.o
                                                  /home/ldq/rk-linux/rt-thread/bsp/stm32/libraries/STM32F1xx_HAL/STM32F1xx_HAL_Driver/Src/stm32f1xx_hal_rcc.o
                                                  build/board/CubeMX_Config/Src/stm32f1xx_hal_msp.o
HAL_GPIO_LockPin                                  /home/ldq/rk-linux/rt-thread/bsp/stm32/libraries/STM32F1xx_HAL/STM32F1xx_HAL_Driver/Src/stm32f1xx_hal_gpio.o
HAL_GPIO_ReadPin                                  /home/ldq/rk-linux/rt-thread/bsp/stm32/libraries/STM32F1xx_HAL/STM32F1xx_HAL_Driver/Src/stm32f1xx_hal_gpio.o
                                                  /home/ldq/rk-linux/rt-thread/bsp/stm32/libraries/HAL_Drivers/drv_gpio.o
HAL_GPIO_TogglePin                                /home/ldq/rk-linux/rt-thread/bsp/stm32/libraries/STM32F1xx_HAL/STM32F1xx_HAL_Driver/Src/stm32f1xx_hal_gpio.o
HAL_GPIO_WritePin                                 /home/ldq/rk-linux/rt-thread/bsp/stm32/libraries/STM32F1xx_HAL/STM32F1xx_HAL_Driver/Src/stm32f1xx_hal_gpio.o
                                                  /home/ldq/rk-linux/rt-thread/bsp/stm32/libraries/HAL_Drivers/drv_gpio.o
HAL_GetDEVID                                      /home/ldq/rk-linux/rt-thread/bsp/stm32/libraries/STM32F1xx_HAL/STM32F1xx_HAL_Driver/Src/stm32f1xx_hal.o
HAL_GetHalVersion                                 /home/ldq/rk-linux/rt-thread/bsp/stm32/libraries/STM32F1xx_HAL/STM32F1xx_HAL_Driver/Src/stm32f1xx_hal.o
HAL_GetREVID                                      /home/ldq/rk-linux/rt-thread/bsp/stm32/libraries/STM32F1xx_HAL/STM32F1xx_HAL_Driver/Src/stm32f1xx_hal.o
HAL_GetTick                                       /home/ldq/rk-linux/rt-thread/bsp/stm32/libraries/HAL_Drivers/drv_common.o
                                                  /home/ldq/rk-linux/rt-thread/bsp/stm32/libraries/STM32F1xx_HAL/STM32F1xx_HAL_Driver/Src/stm32f1xx_hal.o
                                                  /home/ldq/rk-linux/rt-thread/bsp/stm32/libraries/STM32F1xx_HAL/STM32F1xx_HAL_Driver/Src/stm32f1xx_hal_uart.o
                                                  /home/ldq/rk-linux/rt-thread/bsp/stm32/libraries/STM32F1xx_HAL/STM32F1xx_HAL_Driver/Src/stm32f1xx_hal_rcc_ex.o
                                                  /home/ldq/rk-linux/rt-thread/bsp/stm32/libraries/STM32F1xx_HAL/STM32F1xx_HAL_Driver/Src/stm32f1xx_hal_rcc.o
                                                  /home/ldq/rk-linux/rt-thread/bsp/stm32/libraries/STM32F1xx_HAL/STM32F1xx_HAL_Driver/Src/stm32f1xx_hal_dma.o
HAL_GetTickFreq                                   /home/ldq/rk-linux/rt-thread/bsp/stm32/libraries/STM32F1xx_HAL/STM32F1xx_HAL_Driver/Src/stm32f1xx_hal.o
HAL_GetTickPrio                                   /home/ldq/rk-linux/rt-thread/bsp/stm32/libraries/STM32F1xx_HAL/STM32F1xx_HAL_Driver/Src/stm32f1xx_hal.o
HAL_GetUID                                        /home/ldq/rk-linux/rt-thread/bsp/stm32/libraries/STM32F1xx_HAL/STM32F1xx_HAL_Driver/Src/stm32f1xx_hal.o
HAL_HalfDuplex_EnableReceiver                     /home/ldq/rk-linux/rt-thread/bsp/stm32/libraries/STM32F1xx_HAL/STM32F1xx_HAL_Driver/Src/stm32f1xx_hal_uart.o
HAL_HalfDuplex_EnableTransmitter                  /home/ldq/rk-linux/rt-thread/bsp/stm32/libraries/STM32F1xx_HAL/STM32F1xx_HAL_Driver/Src/stm32f1xx_hal_uart.o
HAL_HalfDuplex_Init                               /home/ldq/rk-linux/rt-thread/bsp/stm32/libraries/STM32F1xx_HAL/STM32F1xx_HAL_Driver/Src/stm32f1xx_hal_uart.o
HAL_IncTick                                       /home/ldq/rk-linux/rt-thread/bsp/stm32/libraries/STM32F1xx_HAL/STM32F1xx_HAL_Driver/Src/stm32f1xx_hal.o
                                                  /home/ldq/rk-linux/rt-thread/bsp/stm32/libraries/HAL_Drivers/drv_common.o
HAL_Init                                          /home/ldq/rk-linux/rt-thread/bsp/stm32/libraries/STM32F1xx_HAL/STM32F1xx_HAL_Driver/Src/stm32f1xx_hal.o
                                                  /home/ldq/rk-linux/rt-thread/bsp/stm32/libraries/HAL_Drivers/drv_common.o
HAL_InitTick                                      /home/ldq/rk-linux/rt-thread/bsp/stm32/libraries/HAL_Drivers/drv_common.o
                                                  /home/ldq/rk-linux/rt-thread/bsp/stm32/libraries/STM32F1xx_HAL/STM32F1xx_HAL_Driver/Src/stm32f1xx_hal.o
                                                  /home/ldq/rk-linux/rt-thread/bsp/stm32/libraries/STM32F1xx_HAL/STM32F1xx_HAL_Driver/Src/stm32f1xx_hal_rcc.o
HAL_LIN_Init                                      /home/ldq/rk-linux/rt-thread/bsp/stm32/libraries/STM32F1xx_HAL/STM32F1xx_HAL_Driver/Src/stm32f1xx_hal_uart.o
HAL_LIN_SendBreak                                 /home/ldq/rk-linux/rt-thread/bsp/stm32/libraries/STM32F1xx_HAL/STM32F1xx_HAL_Driver/Src/stm32f1xx_hal_uart.o
HAL_MspDeInit                                     /home/ldq/rk-linux/rt-thread/bsp/stm32/libraries/STM32F1xx_HAL/STM32F1xx_HAL_Driver/Src/stm32f1xx_hal.o
HAL_MspInit                                       build/board/CubeMX_Config/Src/stm32f1xx_hal_msp.o
HAL_MultiProcessor_EnterMuteMode                  /home/ldq/rk-linux/rt-thread/bsp/stm32/libraries/STM32F1xx_HAL/STM32F1xx_HAL_Driver/Src/stm32f1xx_hal_uart.o
HAL_MultiProcessor_ExitMuteMode                   /home/ldq/rk-linux/rt-thread/bsp/stm32/libraries/STM32F1xx_HAL/STM32F1xx_HAL_Driver/Src/stm32f1xx_hal_uart.o
HAL_MultiProcessor_Init                           /home/ldq/rk-linux/rt-thread/bsp/stm32/libraries/STM32F1xx_HAL/STM32F1xx_HAL_Driver/Src/stm32f1xx_hal_uart.o
HAL_NVIC_ClearPendingIRQ                          /home/ldq/rk-linux/rt-thread/bsp/stm32/libraries/STM32F1xx_HAL/STM32F1xx_HAL_Driver/Src/stm32f1xx_hal_cortex.o
HAL_NVIC_DisableIRQ                               /home/ldq/rk-linux/rt-thread/bsp/stm32/libraries/STM32F1xx_HAL/STM32F1xx_HAL_Driver/Src/stm32f1xx_hal_cortex.o
                                                  /home/ldq/rk-linux/rt-thread/bsp/stm32/libraries/HAL_Drivers/drv_gpio.o
HAL_NVIC_EnableIRQ                                /home/ldq/rk-linux/rt-thread/bsp/stm32/libraries/STM32F1xx_HAL/STM32F1xx_HAL_Driver/Src/stm32f1xx_hal_cortex.o
                                                  /home/ldq/rk-linux/rt-thread/bsp/stm32/libraries/HAL_Drivers/drv_usart.o
                                                  /home/ldq/rk-linux/rt-thread/bsp/stm32/libraries/HAL_Drivers/drv_gpio.o
HAL_NVIC_GetActive                                /home/ldq/rk-linux/rt-thread/bsp/stm32/libraries/STM32F1xx_HAL/STM32F1xx_HAL_Driver/Src/stm32f1xx_hal_cortex.o
HAL_NVIC_GetPendingIRQ                            /home/ldq/rk-linux/rt-thread/bsp/stm32/libraries/STM32F1xx_HAL/STM32F1xx_HAL_Driver/Src/stm32f1xx_hal_cortex.o
HAL_NVIC_GetPriority                              /home/ldq/rk-linux/rt-thread/bsp/stm32/libraries/STM32F1xx_HAL/STM32F1xx_HAL_Driver/Src/stm32f1xx_hal_cortex.o
HAL_NVIC_GetPriorityGrouping                      /home/ldq/rk-linux/rt-thread/bsp/stm32/libraries/STM32F1xx_HAL/STM32F1xx_HAL_Driver/Src/stm32f1xx_hal_cortex.o
HAL_NVIC_SetPendingIRQ                            /home/ldq/rk-linux/rt-thread/bsp/stm32/libraries/STM32F1xx_HAL/STM32F1xx_HAL_Driver/Src/stm32f1xx_hal_cortex.o
HAL_NVIC_SetPriority                              /home/ldq/rk-linux/rt-thread/bsp/stm32/libraries/STM32F1xx_HAL/STM32F1xx_HAL_Driver/Src/stm32f1xx_hal_cortex.o
                                                  /home/ldq/rk-linux/rt-thread/bsp/stm32/libraries/HAL_Drivers/drv_common.o
                                                  /home/ldq/rk-linux/rt-thread/bsp/stm32/libraries/HAL_Drivers/drv_usart.o
                                                  /home/ldq/rk-linux/rt-thread/bsp/stm32/libraries/HAL_Drivers/drv_gpio.o
                                                  /home/ldq/rk-linux/rt-thread/bsp/stm32/libraries/STM32F1xx_HAL/STM32F1xx_HAL_Driver/Src/stm32f1xx_hal.o
HAL_NVIC_SetPriorityGrouping                      /home/ldq/rk-linux/rt-thread/bsp/stm32/libraries/STM32F1xx_HAL/STM32F1xx_HAL_Driver/Src/stm32f1xx_hal_cortex.o
                                                  /home/ldq/rk-linux/rt-thread/bsp/stm32/libraries/STM32F1xx_HAL/STM32F1xx_HAL_Driver/Src/stm32f1xx_hal.o
HAL_NVIC_SystemReset                              /home/ldq/rk-linux/rt-thread/bsp/stm32/libraries/STM32F1xx_HAL/STM32F1xx_HAL_Driver/Src/stm32f1xx_hal_cortex.o
HAL_PWR_ConfigPVD                                 /home/ldq/rk-linux/rt-thread/bsp/stm32/libraries/STM32F1xx_HAL/STM32F1xx_HAL_Driver/Src/stm32f1xx_hal_pwr.o
HAL_PWR_DeInit                                    /home/ldq/rk-linux/rt-thread/bsp/stm32/libraries/STM32F1xx_HAL/STM32F1xx_HAL_Driver/Src/stm32f1xx_hal_pwr.o
HAL_PWR_DisableBkUpAccess                         /home/ldq/rk-linux/rt-thread/bsp/stm32/libraries/STM32F1xx_HAL/STM32F1xx_HAL_Driver/Src/stm32f1xx_hal_pwr.o
HAL_PWR_DisablePVD                                /home/ldq/rk-linux/rt-thread/bsp/stm32/libraries/STM32F1xx_HAL/STM32F1xx_HAL_Driver/Src/stm32f1xx_hal_pwr.o
HAL_PWR_DisableSEVOnPend                          /home/ldq/rk-linux/rt-thread/bsp/stm32/libraries/STM32F1xx_HAL/STM32F1xx_HAL_Driver/Src/stm32f1xx_hal_pwr.o
HAL_PWR_DisableSleepOnExit                        /home/ldq/rk-linux/rt-thread/bsp/stm32/libraries/STM32F1xx_HAL/STM32F1xx_HAL_Driver/Src/stm32f1xx_hal_pwr.o
HAL_PWR_DisableWakeUpPin                          /home/ldq/rk-linux/rt-thread/bsp/stm32/libraries/STM32F1xx_HAL/STM32F1xx_HAL_Driver/Src/stm32f1xx_hal_pwr.o
HAL_PWR_EnableBkUpAccess                          /home/ldq/rk-linux/rt-thread/bsp/stm32/libraries/STM32F1xx_HAL/STM32F1xx_HAL_Driver/Src/stm32f1xx_hal_pwr.o
HAL_PWR_EnablePVD                                 /home/ldq/rk-linux/rt-thread/bsp/stm32/libraries/STM32F1xx_HAL/STM32F1xx_HAL_Driver/Src/stm32f1xx_hal_pwr.o
HAL_PWR_EnableSEVOnPend                           /home/ldq/rk-linux/rt-thread/bsp/stm32/libraries/STM32F1xx_HAL/STM32F1xx_HAL_Driver/Src/stm32f1xx_hal_pwr.o
HAL_PWR_EnableSleepOnExit                         /home/ldq/rk-linux/rt-thread/bsp/stm32/libraries/STM32F1xx_HAL/STM32F1xx_HAL_Driver/Src/stm32f1xx_hal_pwr.o
HAL_PWR_EnableWakeUpPin                           /home/ldq/rk-linux/rt-thread/bsp/stm32/libraries/STM32F1xx_HAL/STM32F1xx_HAL_Driver/Src/stm32f1xx_hal_pwr.o
HAL_PWR_EnterSLEEPMode                            /home/ldq/rk-linux/rt-thread/bsp/stm32/libraries/STM32F1xx_HAL/STM32F1xx_HAL_Driver/Src/stm32f1xx_hal_pwr.o
HAL_PWR_EnterSTANDBYMode                          /home/ldq/rk-linux/rt-thread/bsp/stm32/libraries/STM32F1xx_HAL/STM32F1xx_HAL_Driver/Src/stm32f1xx_hal_pwr.o
HAL_PWR_EnterSTOPMode                             /home/ldq/rk-linux/rt-thread/bsp/stm32/libraries/STM32F1xx_HAL/STM32F1xx_HAL_Driver/Src/stm32f1xx_hal_pwr.o
HAL_PWR_PVDCallback                               /home/ldq/rk-linux/rt-thread/bsp/stm32/libraries/STM32F1xx_HAL/STM32F1xx_HAL_Driver/Src/stm32f1xx_hal_pwr.o
HAL_PWR_PVD_IRQHandler                            /home/ldq/rk-linux/rt-thread/bsp/stm32/libraries/STM32F1xx_HAL/STM32F1xx_HAL_Driver/Src/stm32f1xx_hal_pwr.o
HAL_RCCEx_GetPeriphCLKConfig                      /home/ldq/rk-linux/rt-thread/bsp/stm32/libraries/STM32F1xx_HAL/STM32F1xx_HAL_Driver/Src/stm32f1xx_hal_rcc_ex.o
HAL_RCCEx_GetPeriphCLKFreq                        /home/ldq/rk-linux/rt-thread/bsp/stm32/libraries/STM32F1xx_HAL/STM32F1xx_HAL_Driver/Src/stm32f1xx_hal_rcc_ex.o
HAL_RCCEx_PeriphCLKConfig                         /home/ldq/rk-linux/rt-thread/bsp/stm32/libraries/STM32F1xx_HAL/STM32F1xx_HAL_Driver/Src/stm32f1xx_hal_rcc_ex.o
HAL_RCC_CSSCallback                               /home/ldq/rk-linux/rt-thread/bsp/stm32/libraries/STM32F1xx_HAL/STM32F1xx_HAL_Driver/Src/stm32f1xx_hal_rcc.o
HAL_RCC_ClockConfig                               /home/ldq/rk-linux/rt-thread/bsp/stm32/libraries/STM32F1xx_HAL/STM32F1xx_HAL_Driver/Src/stm32f1xx_hal_rcc.o
                                                  build/board/board.o
HAL_RCC_DeInit                                    /home/ldq/rk-linux/rt-thread/bsp/stm32/libraries/STM32F1xx_HAL/STM32F1xx_HAL_Driver/Src/stm32f1xx_hal_rcc.o
HAL_RCC_DisableCSS                                /home/ldq/rk-linux/rt-thread/bsp/stm32/libraries/STM32F1xx_HAL/STM32F1xx_HAL_Driver/Src/stm32f1xx_hal_rcc.o
HAL_RCC_EnableCSS                                 /home/ldq/rk-linux/rt-thread/bsp/stm32/libraries/STM32F1xx_HAL/STM32F1xx_HAL_Driver/Src/stm32f1xx_hal_rcc.o
HAL_RCC_GetClockConfig                            /home/ldq/rk-linux/rt-thread/bsp/stm32/libraries/STM32F1xx_HAL/STM32F1xx_HAL_Driver/Src/stm32f1xx_hal_rcc.o
HAL_RCC_GetHCLKFreq                               /home/ldq/rk-linux/rt-thread/bsp/stm32/libraries/STM32F1xx_HAL/STM32F1xx_HAL_Driver/Src/stm32f1xx_hal_rcc.o
                                                  /home/ldq/rk-linux/rt-thread/bsp/stm32/libraries/HAL_Drivers/drv_common.o
HAL_RCC_GetOscConfig                              /home/ldq/rk-linux/rt-thread/bsp/stm32/libraries/STM32F1xx_HAL/STM32F1xx_HAL_Driver/Src/stm32f1xx_hal_rcc.o
HAL_RCC_GetPCLK1Freq                              /home/ldq/rk-linux/rt-thread/bsp/stm32/libraries/STM32F1xx_HAL/STM32F1xx_HAL_Driver/Src/stm32f1xx_hal_rcc.o
                                                  /home/ldq/rk-linux/rt-thread/bsp/stm32/libraries/STM32F1xx_HAL/STM32F1xx_HAL_Driver/Src/stm32f1xx_hal_uart.o
HAL_RCC_GetPCLK2Freq                              /home/ldq/rk-linux/rt-thread/bsp/stm32/libraries/STM32F1xx_HAL/STM32F1xx_HAL_Driver/Src/stm32f1xx_hal_rcc.o
                                                  /home/ldq/rk-linux/rt-thread/bsp/stm32/libraries/STM32F1xx_HAL/STM32F1xx_HAL_Driver/Src/stm32f1xx_hal_uart.o
                                                  /home/ldq/rk-linux/rt-thread/bsp/stm32/libraries/STM32F1xx_HAL/STM32F1xx_HAL_Driver/Src/stm32f1xx_hal_rcc_ex.o
HAL_RCC_GetSysClockFreq                           /home/ldq/rk-linux/rt-thread/bsp/stm32/libraries/STM32F1xx_HAL/STM32F1xx_HAL_Driver/Src/stm32f1xx_hal_rcc.o
                                                  /home/ldq/rk-linux/rt-thread/bsp/stm32/libraries/STM32F1xx_HAL/STM32F1xx_HAL_Driver/Src/stm32f1xx_hal_rcc_ex.o
HAL_RCC_MCOConfig                                 /home/ldq/rk-linux/rt-thread/bsp/stm32/libraries/STM32F1xx_HAL/STM32F1xx_HAL_Driver/Src/stm32f1xx_hal_rcc.o
HAL_RCC_NMI_IRQHandler                            /home/ldq/rk-linux/rt-thread/bsp/stm32/libraries/STM32F1xx_HAL/STM32F1xx_HAL_Driver/Src/stm32f1xx_hal_rcc.o
HAL_RCC_OscConfig                                 /home/ldq/rk-linux/rt-thread/bsp/stm32/libraries/STM32F1xx_HAL/STM32F1xx_HAL_Driver/Src/stm32f1xx_hal_rcc.o
                                                  build/board/board.o
HAL_ResumeTick                                    /home/ldq/rk-linux/rt-thread/bsp/stm32/libraries/HAL_Drivers/drv_common.o
                                                  /home/ldq/rk-linux/rt-thread/bsp/stm32/libraries/STM32F1xx_HAL/STM32F1xx_HAL_Driver/Src/stm32f1xx_hal.o
HAL_SYSTICK_CLKSourceConfig                       /home/ldq/rk-linux/rt-thread/bsp/stm32/libraries/STM32F1xx_HAL/STM32F1xx_HAL_Driver/Src/stm32f1xx_hal_cortex.o
                                                  /home/ldq/rk-linux/rt-thread/bsp/stm32/libraries/HAL_Drivers/drv_common.o
HAL_SYSTICK_Callback                              /home/ldq/rk-linux/rt-thread/bsp/stm32/libraries/STM32F1xx_HAL/STM32F1xx_HAL_Driver/Src/stm32f1xx_hal_cortex.o
HAL_SYSTICK_Config                                /home/ldq/rk-linux/rt-thread/bsp/stm32/libraries/STM32F1xx_HAL/STM32F1xx_HAL_Driver/Src/stm32f1xx_hal_cortex.o
                                                  /home/ldq/rk-linux/rt-thread/bsp/stm32/libraries/HAL_Drivers/drv_common.o
                                                  /home/ldq/rk-linux/rt-thread/bsp/stm32/libraries/STM32F1xx_HAL/STM32F1xx_HAL_Driver/Src/stm32f1xx_hal.o
HAL_SYSTICK_IRQHandler                            /home/ldq/rk-linux/rt-thread/bsp/stm32/libraries/STM32F1xx_HAL/STM32F1xx_HAL_Driver/Src/stm32f1xx_hal_cortex.o
HAL_SetTickFreq                                   /home/ldq/rk-linux/rt-thread/bsp/stm32/libraries/STM32F1xx_HAL/STM32F1xx_HAL_Driver/Src/stm32f1xx_hal.o
HAL_SuspendTick                                   /home/ldq/rk-linux/rt-thread/bsp/stm32/libraries/HAL_Drivers/drv_common.o
                                                  /home/ldq/rk-linux/rt-thread/bsp/stm32/libraries/STM32F1xx_HAL/STM32F1xx_HAL_Driver/Src/stm32f1xx_hal.o
HAL_UART_Abort                                    /home/ldq/rk-linux/rt-thread/bsp/stm32/libraries/STM32F1xx_HAL/STM32F1xx_HAL_Driver/Src/stm32f1xx_hal_uart.o
HAL_UART_AbortCpltCallback                        /home/ldq/rk-linux/rt-thread/bsp/stm32/libraries/STM32F1xx_HAL/STM32F1xx_HAL_Driver/Src/stm32f1xx_hal_uart.o
HAL_UART_AbortReceive                             /home/ldq/rk-linux/rt-thread/bsp/stm32/libraries/STM32F1xx_HAL/STM32F1xx_HAL_Driver/Src/stm32f1xx_hal_uart.o
HAL_UART_AbortReceiveCpltCallback                 /home/ldq/rk-linux/rt-thread/bsp/stm32/libraries/STM32F1xx_HAL/STM32F1xx_HAL_Driver/Src/stm32f1xx_hal_uart.o
HAL_UART_AbortReceive_IT                          /home/ldq/rk-linux/rt-thread/bsp/stm32/libraries/STM32F1xx_HAL/STM32F1xx_HAL_Driver/Src/stm32f1xx_hal_uart.o
HAL_UART_AbortTransmit                            /home/ldq/rk-linux/rt-thread/bsp/stm32/libraries/STM32F1xx_HAL/STM32F1xx_HAL_Driver/Src/stm32f1xx_hal_uart.o
HAL_UART_AbortTransmitCpltCallback                /home/ldq/rk-linux/rt-thread/bsp/stm32/libraries/STM32F1xx_HAL/STM32F1xx_HAL_Driver/Src/stm32f1xx_hal_uart.o
HAL_UART_AbortTransmit_IT                         /home/ldq/rk-linux/rt-thread/bsp/stm32/libraries/STM32F1xx_HAL/STM32F1xx_HAL_Driver/Src/stm32f1xx_hal_uart.o
HAL_UART_Abort_IT                                 /home/ldq/rk-linux/rt-thread/bsp/stm32/libraries/STM32F1xx_HAL/STM32F1xx_HAL_Driver/Src/stm32f1xx_hal_uart.o
HAL_UART_DMAPause                                 /home/ldq/rk-linux/rt-thread/bsp/stm32/libraries/STM32F1xx_HAL/STM32F1xx_HAL_Driver/Src/stm32f1xx_hal_uart.o
HAL_UART_DMAResume                                /home/ldq/rk-linux/rt-thread/bsp/stm32/libraries/STM32F1xx_HAL/STM32F1xx_HAL_Driver/Src/stm32f1xx_hal_uart.o
HAL_UART_DMAStop                                  /home/ldq/rk-linux/rt-thread/bsp/stm32/libraries/STM32F1xx_HAL/STM32F1xx_HAL_Driver/Src/stm32f1xx_hal_uart.o
HAL_UART_DeInit                                   /home/ldq/rk-linux/rt-thread/bsp/stm32/libraries/STM32F1xx_HAL/STM32F1xx_HAL_Driver/Src/stm32f1xx_hal_uart.o
HAL_UART_ErrorCallback                            /home/ldq/rk-linux/rt-thread/bsp/stm32/libraries/HAL_Drivers/drv_usart.o
                                                  /home/ldq/rk-linux/rt-thread/bsp/stm32/libraries/STM32F1xx_HAL/STM32F1xx_HAL_Driver/Src/stm32f1xx_hal_uart.o
HAL_UART_GetError                                 /home/ldq/rk-linux/rt-thread/bsp/stm32/libraries/STM32F1xx_HAL/STM32F1xx_HAL_Driver/Src/stm32f1xx_hal_uart.o
HAL_UART_GetState                                 /home/ldq/rk-linux/rt-thread/bsp/stm32/libraries/STM32F1xx_HAL/STM32F1xx_HAL_Driver/Src/stm32f1xx_hal_uart.o
HAL_UART_IRQHandler                               /home/ldq/rk-linux/rt-thread/bsp/stm32/libraries/STM32F1xx_HAL/STM32F1xx_HAL_Driver/Src/stm32f1xx_hal_uart.o
                                                  /home/ldq/rk-linux/rt-thread/bsp/stm32/libraries/HAL_Drivers/drv_usart.o
HAL_UART_Init                                     /home/ldq/rk-linux/rt-thread/bsp/stm32/libraries/STM32F1xx_HAL/STM32F1xx_HAL_Driver/Src/stm32f1xx_hal_uart.o
                                                  /home/ldq/rk-linux/rt-thread/bsp/stm32/libraries/HAL_Drivers/drv_usart.o
HAL_UART_MspDeInit                                build/board/CubeMX_Config/Src/stm32f1xx_hal_msp.o
HAL_UART_MspInit                                  build/board/CubeMX_Config/Src/stm32f1xx_hal_msp.o
HAL_UART_Receive                                  /home/ldq/rk-linux/rt-thread/bsp/stm32/libraries/STM32F1xx_HAL/STM32F1xx_HAL_Driver/Src/stm32f1xx_hal_uart.o
HAL_UART_Receive_DMA                              /home/ldq/rk-linux/rt-thread/bsp/stm32/libraries/STM32F1xx_HAL/STM32F1xx_HAL_Driver/Src/stm32f1xx_hal_uart.o
                                                  /home/ldq/rk-linux/rt-thread/bsp/stm32/libraries/HAL_Drivers/drv_usart.o
HAL_UART_Receive_IT                               /home/ldq/rk-linux/rt-thread/bsp/stm32/libraries/STM32F1xx_HAL/STM32F1xx_HAL_Driver/Src/stm32f1xx_hal_uart.o
HAL_UART_RxCpltCallback                           /home/ldq/rk-linux/rt-thread/bsp/stm32/libraries/HAL_Drivers/drv_usart.o
                                                  /home/ldq/rk-linux/rt-thread/bsp/stm32/libraries/STM32F1xx_HAL/STM32F1xx_HAL_Driver/Src/stm32f1xx_hal_uart.o
HAL_UART_RxHalfCpltCallback                       /home/ldq/rk-linux/rt-thread/bsp/stm32/libraries/HAL_Drivers/drv_usart.o
                                                  /home/ldq/rk-linux/rt-thread/bsp/stm32/libraries/STM32F1xx_HAL/STM32F1xx_HAL_Driver/Src/stm32f1xx_hal_uart.o
HAL_UART_Transmit                                 /home/ldq/rk-linux/rt-thread/bsp/stm32/libraries/STM32F1xx_HAL/STM32F1xx_HAL_Driver/Src/stm32f1xx_hal_uart.o
HAL_UART_Transmit_DMA                             /home/ldq/rk-linux/rt-thread/bsp/stm32/libraries/STM32F1xx_HAL/STM32F1xx_HAL_Driver/Src/stm32f1xx_hal_uart.o
                                                  /home/ldq/rk-linux/rt-thread/bsp/stm32/libraries/HAL_Drivers/drv_usart.o
HAL_UART_Transmit_IT                              /home/ldq/rk-linux/rt-thread/bsp/stm32/libraries/STM32F1xx_HAL/STM32F1xx_HAL_Driver/Src/stm32f1xx_hal_uart.o
HAL_UART_TxCpltCallback                           /home/ldq/rk-linux/rt-thread/bsp/stm32/libraries/HAL_Drivers/drv_usart.o
                                                  /home/ldq/rk-linux/rt-thread/bsp/stm32/libraries/STM32F1xx_HAL/STM32F1xx_HAL_Driver/Src/stm32f1xx_hal_uart.o
HAL_UART_TxHalfCpltCallback                       /home/ldq/rk-linux/rt-thread/bsp/stm32/libraries/STM32F1xx_HAL/STM32F1xx_HAL_Driver/Src/stm32f1xx_hal_uart.o
HardFault_Handler                                 build/kernel/libcpu/arm/cortex-m3/context_gcc.o
                                                  /home/ldq/rk-linux/rt-thread/bsp/stm32/libraries/STM32F1xx_HAL/CMSIS/Device/ST/STM32F1xx/Source/Templates/gcc/startup_stm32f103xe.o
I2C1_ER_IRQHandler                                /home/ldq/rk-linux/rt-thread/bsp/stm32/libraries/STM32F1xx_HAL/CMSIS/Device/ST/STM32F1xx/Source/Templates/gcc/startup_stm32f103xe.o
I2C1_EV_IRQHandler                                /home/ldq/rk-linux/rt-thread/bsp/stm32/libraries/STM32F1xx_HAL/CMSIS/Device/ST/STM32F1xx/Source/Templates/gcc/startup_stm32f103xe.o
I2C2_ER_IRQHandler                                /home/ldq/rk-linux/rt-thread/bsp/stm32/libraries/STM32F1xx_HAL/CMSIS/Device/ST/STM32F1xx/Source/Templates/gcc/startup_stm32f103xe.o
I2C2_EV_IRQHandler                                /home/ldq/rk-linux/rt-thread/bsp/stm32/libraries/STM32F1xx_HAL/CMSIS/Device/ST/STM32F1xx/Source/Templates/gcc/startup_stm32f103xe.o
MemManage_Handler                                 /home/ldq/rk-linux/rt-thread/bsp/stm32/libraries/STM32F1xx_HAL/CMSIS/Device/ST/STM32F1xx/Source/Templates/gcc/startup_stm32f103xe.o
NMI_Handler                                       /home/ldq/rk-linux/rt-thread/bsp/stm32/libraries/STM32F1xx_HAL/CMSIS/Device/ST/STM32F1xx/Source/Templates/gcc/startup_stm32f103xe.o
PVD_IRQHandler                                    /home/ldq/rk-linux/rt-thread/bsp/stm32/libraries/STM32F1xx_HAL/CMSIS/Device/ST/STM32F1xx/Source/Templates/gcc/startup_stm32f103xe.o
PendSV_Handler                                    build/kernel/libcpu/arm/cortex-m3/context_gcc.o
                                                  /home/ldq/rk-linux/rt-thread/bsp/stm32/libraries/STM32F1xx_HAL/CMSIS/Device/ST/STM32F1xx/Source/Templates/gcc/startup_stm32f103xe.o
RCC_IRQHandler                                    /home/ldq/rk-linux/rt-thread/bsp/stm32/libraries/STM32F1xx_HAL/CMSIS/Device/ST/STM32F1xx/Source/Templates/gcc/startup_stm32f103xe.o
RTC_Alarm_IRQHandler                              /home/ldq/rk-linux/rt-thread/bsp/stm32/libraries/STM32F1xx_HAL/CMSIS/Device/ST/STM32F1xx/Source/Templates/gcc/startup_stm32f103xe.o
RTC_IRQHandler                                    /home/ldq/rk-linux/rt-thread/bsp/stm32/libraries/STM32F1xx_HAL/CMSIS/Device/ST/STM32F1xx/Source/Templates/gcc/startup_stm32f103xe.o
Reset_Handler                                     /home/ldq/rk-linux/rt-thread/bsp/stm32/libraries/STM32F1xx_HAL/CMSIS/Device/ST/STM32F1xx/Source/Templates/gcc/startup_stm32f103xe.o
SDIO_IRQHandler                                   /home/ldq/rk-linux/rt-thread/bsp/stm32/libraries/STM32F1xx_HAL/CMSIS/Device/ST/STM32F1xx/Source/Templates/gcc/startup_stm32f103xe.o
SPI1_IRQHandler                                   /home/ldq/rk-linux/rt-thread/bsp/stm32/libraries/STM32F1xx_HAL/CMSIS/Device/ST/STM32F1xx/Source/Templates/gcc/startup_stm32f103xe.o
SPI2_IRQHandler                                   /home/ldq/rk-linux/rt-thread/bsp/stm32/libraries/STM32F1xx_HAL/CMSIS/Device/ST/STM32F1xx/Source/Templates/gcc/startup_stm32f103xe.o
SPI3_IRQHandler                                   /home/ldq/rk-linux/rt-thread/bsp/stm32/libraries/STM32F1xx_HAL/CMSIS/Device/ST/STM32F1xx/Source/Templates/gcc/startup_stm32f103xe.o
SVC_Handler                                       /home/ldq/rk-linux/rt-thread/bsp/stm32/libraries/STM32F1xx_HAL/CMSIS/Device/ST/STM32F1xx/Source/Templates/gcc/startup_stm32f103xe.o
SysTick_Handler                                   /home/ldq/rk-linux/rt-thread/bsp/stm32/libraries/HAL_Drivers/drv_common.o
                                                  /home/ldq/rk-linux/rt-thread/bsp/stm32/libraries/STM32F1xx_HAL/CMSIS/Device/ST/STM32F1xx/Source/Templates/gcc/startup_stm32f103xe.o
SystemClock_Config                                build/board/board.o
                                                  /home/ldq/rk-linux/rt-thread/bsp/stm32/libraries/HAL_Drivers/drv_common.o
SystemCoreClock                                   /home/ldq/rk-linux/rt-thread/bsp/stm32/libraries/STM32F1xx_HAL/CMSIS/Device/ST/STM32F1xx/Source/Templates/system_stm32f1xx.o
                                                  /home/ldq/rk-linux/rt-thread/bsp/stm32/libraries/HAL_Drivers/drv_common.o
                                                  /home/ldq/rk-linux/rt-thread/bsp/stm32/libraries/STM32F1xx_HAL/STM32F1xx_HAL_Driver/Src/stm32f1xx_hal.o
                                                  /home/ldq/rk-linux/rt-thread/bsp/stm32/libraries/STM32F1xx_HAL/STM32F1xx_HAL_Driver/Src/stm32f1xx_hal_rcc.o
SystemCoreClockUpdate                             /home/ldq/rk-linux/rt-thread/bsp/stm32/libraries/STM32F1xx_HAL/CMSIS/Device/ST/STM32F1xx/Source/Templates/system_stm32f1xx.o
SystemInit                                        /home/ldq/rk-linux/rt-thread/bsp/stm32/libraries/STM32F1xx_HAL/CMSIS/Device/ST/STM32F1xx/Source/Templates/system_stm32f1xx.o
                                                  /home/ldq/rk-linux/rt-thread/bsp/stm32/libraries/STM32F1xx_HAL/CMSIS/Device/ST/STM32F1xx/Source/Templates/gcc/startup_stm32f103xe.o
TAMPER_IRQHandler                                 /home/ldq/rk-linux/rt-thread/bsp/stm32/libraries/STM32F1xx_HAL/CMSIS/Device/ST/STM32F1xx/Source/Templates/gcc/startup_stm32f103xe.o
TIM1_BRK_IRQHandler                               /home/ldq/rk-linux/rt-thread/bsp/stm32/libraries/STM32F1xx_HAL/CMSIS/Device/ST/STM32F1xx/Source/Templates/gcc/startup_stm32f103xe.o
TIM1_CC_IRQHandler                                /home/ldq/rk-linux/rt-thread/bsp/stm32/libraries/STM32F1xx_HAL/CMSIS/Device/ST/STM32F1xx/Source/Templates/gcc/startup_stm32f103xe.o
TIM1_TRG_COM_IRQHandler                           /home/ldq/rk-linux/rt-thread/bsp/stm32/libraries/STM32F1xx_HAL/CMSIS/Device/ST/STM32F1xx/Source/Templates/gcc/startup_stm32f103xe.o
TIM1_UP_IRQHandler                                /home/ldq/rk-linux/rt-thread/bsp/stm32/libraries/STM32F1xx_HAL/CMSIS/Device/ST/STM32F1xx/Source/Templates/gcc/startup_stm32f103xe.o
TIM2_IRQHandler                                   /home/ldq/rk-linux/rt-thread/bsp/stm32/libraries/STM32F1xx_HAL/CMSIS/Device/ST/STM32F1xx/Source/Templates/gcc/startup_stm32f103xe.o
TIM3_IRQHandler                                   /home/ldq/rk-linux/rt-thread/bsp/stm32/libraries/STM32F1xx_HAL/CMSIS/Device/ST/STM32F1xx/Source/Templates/gcc/startup_stm32f103xe.o
TIM4_IRQHandler                                   /home/ldq/rk-linux/rt-thread/bsp/stm32/libraries/STM32F1xx_HAL/CMSIS/Device/ST/STM32F1xx/Source/Templates/gcc/startup_stm32f103xe.o
TIM5_IRQHandler                                   /home/ldq/rk-linux/rt-thread/bsp/stm32/libraries/STM32F1xx_HAL/CMSIS/Device/ST/STM32F1xx/Source/Templates/gcc/startup_stm32f103xe.o
TIM6_IRQHandler                                   /home/ldq/rk-linux/rt-thread/bsp/stm32/libraries/STM32F1xx_HAL/CMSIS/Device/ST/STM32F1xx/Source/Templates/gcc/startup_stm32f103xe.o
TIM7_IRQHandler                                   /home/ldq/rk-linux/rt-thread/bsp/stm32/libraries/STM32F1xx_HAL/CMSIS/Device/ST/STM32F1xx/Source/Templates/gcc/startup_stm32f103xe.o
TIM8_BRK_IRQHandler                               /home/ldq/rk-linux/rt-thread/bsp/stm32/libraries/STM32F1xx_HAL/CMSIS/Device/ST/STM32F1xx/Source/Templates/gcc/startup_stm32f103xe.o
TIM8_CC_IRQHandler                                /home/ldq/rk-linux/rt-thread/bsp/stm32/libraries/STM32F1xx_HAL/CMSIS/Device/ST/STM32F1xx/Source/Templates/gcc/startup_stm32f103xe.o
TIM8_TRG_COM_IRQHandler                           /home/ldq/rk-linux/rt-thread/bsp/stm32/libraries/STM32F1xx_HAL/CMSIS/Device/ST/STM32F1xx/Source/Templates/gcc/startup_stm32f103xe.o
TIM8_UP_IRQHandler                                /home/ldq/rk-linux/rt-thread/bsp/stm32/libraries/STM32F1xx_HAL/CMSIS/Device/ST/STM32F1xx/Source/Templates/gcc/startup_stm32f103xe.o
UART4_IRQHandler                                  /home/ldq/rk-linux/rt-thread/bsp/stm32/libraries/STM32F1xx_HAL/CMSIS/Device/ST/STM32F1xx/Source/Templates/gcc/startup_stm32f103xe.o
UART5_IRQHandler                                  /home/ldq/rk-linux/rt-thread/bsp/stm32/libraries/STM32F1xx_HAL/CMSIS/Device/ST/STM32F1xx/Source/Templates/gcc/startup_stm32f103xe.o
USART1_IRQHandler                                 /home/ldq/rk-linux/rt-thread/bsp/stm32/libraries/HAL_Drivers/drv_usart.o
                                                  /home/ldq/rk-linux/rt-thread/bsp/stm32/libraries/STM32F1xx_HAL/CMSIS/Device/ST/STM32F1xx/Source/Templates/gcc/startup_stm32f103xe.o
USART2_IRQHandler                                 /home/ldq/rk-linux/rt-thread/bsp/stm32/libraries/STM32F1xx_HAL/CMSIS/Device/ST/STM32F1xx/Source/Templates/gcc/startup_stm32f103xe.o
USART3_IRQHandler                                 /home/ldq/rk-linux/rt-thread/bsp/stm32/libraries/STM32F1xx_HAL/CMSIS/Device/ST/STM32F1xx/Source/Templates/gcc/startup_stm32f103xe.o
USBWakeUp_IRQHandler                              /home/ldq/rk-linux/rt-thread/bsp/stm32/libraries/STM32F1xx_HAL/CMSIS/Device/ST/STM32F1xx/Source/Templates/gcc/startup_stm32f103xe.o
USB_HP_CAN1_TX_IRQHandler                         /home/ldq/rk-linux/rt-thread/bsp/stm32/libraries/STM32F1xx_HAL/CMSIS/Device/ST/STM32F1xx/Source/Templates/gcc/startup_stm32f103xe.o
USB_LP_CAN1_RX0_IRQHandler                        /home/ldq/rk-linux/rt-thread/bsp/stm32/libraries/STM32F1xx_HAL/CMSIS/Device/ST/STM32F1xx/Source/Templates/gcc/startup_stm32f103xe.o
UsageFault_Handler                                /home/ldq/rk-linux/rt-thread/bsp/stm32/libraries/STM32F1xx_HAL/CMSIS/Device/ST/STM32F1xx/Source/Templates/gcc/startup_stm32f103xe.o
WWDG_IRQHandler                                   /home/ldq/rk-linux/rt-thread/bsp/stm32/libraries/STM32F1xx_HAL/CMSIS/Device/ST/STM32F1xx/Source/Templates/gcc/startup_stm32f103xe.o
_Error_Handler                                    /home/ldq/rk-linux/rt-thread/bsp/stm32/libraries/HAL_Drivers/drv_common.o
                                                  build/board/board.o
__adddf3                                          /home/ldq/rk-linux/prebuilts/gcc-arm-none-eabi-7-2018-q2-update/bin/../lib/gcc/arm-none-eabi/7.3.1/thumb/v7-m/libgcc.a(_arm_addsubdf3.o)
__aeabi_d2iz                                      /home/ldq/rk-linux/prebuilts/gcc-arm-none-eabi-7-2018-q2-update/bin/../lib/gcc/arm-none-eabi/7.3.1/thumb/v7-m/libgcc.a(_arm_fixdfsi.o)
                                                  build/kernel/components/libc/compilers/minilibc/math.o
__aeabi_dadd                                      /home/ldq/rk-linux/prebuilts/gcc-arm-none-eabi-7-2018-q2-update/bin/../lib/gcc/arm-none-eabi/7.3.1/thumb/v7-m/libgcc.a(_arm_addsubdf3.o)
                                                  build/kernel/components/libc/compilers/minilibc/math.o
__aeabi_ddiv                                      /home/ldq/rk-linux/prebuilts/gcc-arm-none-eabi-7-2018-q2-update/bin/../lib/gcc/arm-none-eabi/7.3.1/thumb/v7-m/libgcc.a(_arm_muldivdf3.o)
__aeabi_dmul                                      /home/ldq/rk-linux/prebuilts/gcc-arm-none-eabi-7-2018-q2-update/bin/../lib/gcc/arm-none-eabi/7.3.1/thumb/v7-m/libgcc.a(_arm_muldivdf3.o)
                                                  build/kernel/components/libc/compilers/minilibc/math.o
__aeabi_drsub                                     /home/ldq/rk-linux/prebuilts/gcc-arm-none-eabi-7-2018-q2-update/bin/../lib/gcc/arm-none-eabi/7.3.1/thumb/v7-m/libgcc.a(_arm_addsubdf3.o)
__aeabi_dsub                                      /home/ldq/rk-linux/prebuilts/gcc-arm-none-eabi-7-2018-q2-update/bin/../lib/gcc/arm-none-eabi/7.3.1/thumb/v7-m/libgcc.a(_arm_addsubdf3.o)
                                                  build/kernel/components/libc/compilers/minilibc/math.o
__aeabi_f2d                                       /home/ldq/rk-linux/prebuilts/gcc-arm-none-eabi-7-2018-q2-update/bin/../lib/gcc/arm-none-eabi/7.3.1/thumb/v7-m/libgcc.a(_arm_addsubdf3.o)
__aeabi_i2d                                       /home/ldq/rk-linux/prebuilts/gcc-arm-none-eabi-7-2018-q2-update/bin/../lib/gcc/arm-none-eabi/7.3.1/thumb/v7-m/libgcc.a(_arm_addsubdf3.o)
                                                  build/kernel/components/libc/compilers/minilibc/math.o
__aeabi_l2d                                       /home/ldq/rk-linux/prebuilts/gcc-arm-none-eabi-7-2018-q2-update/bin/../lib/gcc/arm-none-eabi/7.3.1/thumb/v7-m/libgcc.a(_arm_addsubdf3.o)
__aeabi_ui2d                                      /home/ldq/rk-linux/prebuilts/gcc-arm-none-eabi-7-2018-q2-update/bin/../lib/gcc/arm-none-eabi/7.3.1/thumb/v7-m/libgcc.a(_arm_addsubdf3.o)
__aeabi_ul2d                                      /home/ldq/rk-linux/prebuilts/gcc-arm-none-eabi-7-2018-q2-update/bin/../lib/gcc/arm-none-eabi/7.3.1/thumb/v7-m/libgcc.a(_arm_addsubdf3.o)
__atexit_recursive_mutex                          /home/ldq/rk-linux/prebuilts/gcc-arm-none-eabi-7-2018-q2-update/bin/../lib/gcc/arm-none-eabi/7.3.1/../../../../arm-none-eabi/lib/thumb/v7-m/libc.a(lib_a-__call_atexit.o)
                                                  /home/ldq/rk-linux/prebuilts/gcc-arm-none-eabi-7-2018-q2-update/bin/../lib/gcc/arm-none-eabi/7.3.1/../../../../arm-none-eabi/lib/thumb/v7-m/libc.a(lib_a-__atexit.o)
__bss_end                                         /home/ldq/rk-linux/rt-thread/bsp/stm32/libraries/HAL_Drivers/drv_common.o
__bss_end__                                       /home/ldq/rk-linux/prebuilts/gcc-arm-none-eabi-7-2018-q2-update/bin/../lib/gcc/arm-none-eabi/7.3.1/../../../../arm-none-eabi/lib/thumb/v7-m/crt0.o
__bss_start__                                     /home/ldq/rk-linux/prebuilts/gcc-arm-none-eabi-7-2018-q2-update/bin/../lib/gcc/arm-none-eabi/7.3.1/../../../../arm-none-eabi/lib/thumb/v7-m/crt0.o
__call_exitprocs                                  /home/ldq/rk-linux/prebuilts/gcc-arm-none-eabi-7-2018-q2-update/bin/../lib/gcc/arm-none-eabi/7.3.1/../../../../arm-none-eabi/lib/thumb/v7-m/libc.a(lib_a-__call_atexit.o)
                                                  /home/ldq/rk-linux/prebuilts/gcc-arm-none-eabi-7-2018-q2-update/bin/../lib/gcc/arm-none-eabi/7.3.1/../../../../arm-none-eabi/lib/thumb/v7-m/libc.a(lib_a-exit.o)
__deregister_frame_info                           /home/ldq/rk-linux/prebuilts/gcc-arm-none-eabi-7-2018-q2-update/bin/../lib/gcc/arm-none-eabi/7.3.1/thumb/v7-m/crtbegin.o
__div0                                            build/kernel/libcpu/arm/common/div0.o
__divdf3                                          /home/ldq/rk-linux/prebuilts/gcc-arm-none-eabi-7-2018-q2-update/bin/../lib/gcc/arm-none-eabi/7.3.1/thumb/v7-m/libgcc.a(_arm_muldivdf3.o)
__dso_handle                                      /home/ldq/rk-linux/prebuilts/gcc-arm-none-eabi-7-2018-q2-update/bin/../lib/gcc/arm-none-eabi/7.3.1/thumb/v7-m/crtbegin.o
__extendsfdf2                                     /home/ldq/rk-linux/prebuilts/gcc-arm-none-eabi-7-2018-q2-update/bin/../lib/gcc/arm-none-eabi/7.3.1/thumb/v7-m/libgcc.a(_arm_addsubdf3.o)
__fini_array_end                                  /home/ldq/rk-linux/prebuilts/gcc-arm-none-eabi-7-2018-q2-update/bin/../lib/gcc/arm-none-eabi/7.3.1/../../../../arm-none-eabi/lib/thumb/v7-m/libc.a(lib_a-fini.o)
__fini_array_start                                /home/ldq/rk-linux/prebuilts/gcc-arm-none-eabi-7-2018-q2-update/bin/../lib/gcc/arm-none-eabi/7.3.1/../../../../arm-none-eabi/lib/thumb/v7-m/libc.a(lib_a-fini.o)
__fixdfsi                                         /home/ldq/rk-linux/prebuilts/gcc-arm-none-eabi-7-2018-q2-update/bin/../lib/gcc/arm-none-eabi/7.3.1/thumb/v7-m/libgcc.a(_arm_fixdfsi.o)
__floatdidf                                       /home/ldq/rk-linux/prebuilts/gcc-arm-none-eabi-7-2018-q2-update/bin/../lib/gcc/arm-none-eabi/7.3.1/thumb/v7-m/libgcc.a(_arm_addsubdf3.o)
__floatsidf                                       /home/ldq/rk-linux/prebuilts/gcc-arm-none-eabi-7-2018-q2-update/bin/../lib/gcc/arm-none-eabi/7.3.1/thumb/v7-m/libgcc.a(_arm_addsubdf3.o)
__floatundidf                                     /home/ldq/rk-linux/prebuilts/gcc-arm-none-eabi-7-2018-q2-update/bin/../lib/gcc/arm-none-eabi/7.3.1/thumb/v7-m/libgcc.a(_arm_addsubdf3.o)
__floatunsidf                                     /home/ldq/rk-linux/prebuilts/gcc-arm-none-eabi-7-2018-q2-update/bin/../lib/gcc/arm-none-eabi/7.3.1/thumb/v7-m/libgcc.a(_arm_addsubdf3.o)
__fsym___cmd_free                                 build/kernel/components/finsh/msh_cmd.o
__fsym___cmd_free_desc                            build/kernel/components/finsh/msh_cmd.o
__fsym___cmd_free_name                            build/kernel/components/finsh/msh_cmd.o
__fsym___cmd_help                                 build/kernel/components/finsh/msh.o
__fsym___cmd_help_desc                            build/kernel/components/finsh/msh.o
__fsym___cmd_help_name                            build/kernel/components/finsh/msh.o
__fsym___cmd_list_device                          build/kernel/components/finsh/cmd.o
__fsym___cmd_list_device_desc                     build/kernel/components/finsh/cmd.o
__fsym___cmd_list_device_name                     build/kernel/components/finsh/cmd.o
__fsym___cmd_list_event                           build/kernel/components/finsh/cmd.o
__fsym___cmd_list_event_desc                      build/kernel/components/finsh/cmd.o
__fsym___cmd_list_event_name                      build/kernel/components/finsh/cmd.o
__fsym___cmd_list_mailbox                         build/kernel/components/finsh/cmd.o
__fsym___cmd_list_mailbox_desc                    build/kernel/components/finsh/cmd.o
__fsym___cmd_list_mailbox_name                    build/kernel/components/finsh/cmd.o
__fsym___cmd_list_mempool                         build/kernel/components/finsh/cmd.o
__fsym___cmd_list_mempool_desc                    build/kernel/components/finsh/cmd.o
__fsym___cmd_list_mempool_name                    build/kernel/components/finsh/cmd.o
__fsym___cmd_list_msgqueue                        build/kernel/components/finsh/cmd.o
__fsym___cmd_list_msgqueue_desc                   build/kernel/components/finsh/cmd.o
__fsym___cmd_list_msgqueue_name                   build/kernel/components/finsh/cmd.o
__fsym___cmd_list_mutex                           build/kernel/components/finsh/cmd.o
__fsym___cmd_list_mutex_desc                      build/kernel/components/finsh/cmd.o
__fsym___cmd_list_mutex_name                      build/kernel/components/finsh/cmd.o
__fsym___cmd_list_sem                             build/kernel/components/finsh/cmd.o
__fsym___cmd_list_sem_desc                        build/kernel/components/finsh/cmd.o
__fsym___cmd_list_sem_name                        build/kernel/components/finsh/cmd.o
__fsym___cmd_list_thread                          build/kernel/components/finsh/cmd.o
__fsym___cmd_list_thread_desc                     build/kernel/components/finsh/cmd.o
__fsym___cmd_list_thread_name                     build/kernel/components/finsh/cmd.o
__fsym___cmd_list_timer                           build/kernel/components/finsh/cmd.o
__fsym___cmd_list_timer_desc                      build/kernel/components/finsh/cmd.o
__fsym___cmd_list_timer_name                      build/kernel/components/finsh/cmd.o
__fsym___cmd_ps                                   build/kernel/components/finsh/msh_cmd.o
__fsym___cmd_ps_desc                              build/kernel/components/finsh/msh_cmd.o
__fsym___cmd_ps_name                              build/kernel/components/finsh/msh_cmd.o
__fsym___cmd_reboot                               /home/ldq/rk-linux/rt-thread/bsp/stm32/libraries/HAL_Drivers/drv_common.o
__fsym___cmd_reboot_desc                          /home/ldq/rk-linux/rt-thread/bsp/stm32/libraries/HAL_Drivers/drv_common.o
__fsym___cmd_reboot_name                          /home/ldq/rk-linux/rt-thread/bsp/stm32/libraries/HAL_Drivers/drv_common.o
__fsym___cmd_time                                 build/kernel/components/finsh/msh_cmd.o
__fsym___cmd_time_desc                            build/kernel/components/finsh/msh_cmd.o
__fsym___cmd_time_name                            build/kernel/components/finsh/msh_cmd.o
__fsym___cmd_version                              build/kernel/components/finsh/cmd.o
__fsym___cmd_version_desc                         build/kernel/components/finsh/cmd.o
__fsym___cmd_version_name                         build/kernel/components/finsh/cmd.o
__fsym_hello                                      build/kernel/components/finsh/cmd.o
__fsym_hello_desc                                 build/kernel/components/finsh/cmd.o
__fsym_hello_name                                 build/kernel/components/finsh/cmd.o
__fsym_list                                       build/kernel/components/finsh/cmd.o
__fsym_list_desc                                  build/kernel/components/finsh/cmd.o
__fsym_list_device                                build/kernel/components/finsh/cmd.o
__fsym_list_device_desc                           build/kernel/components/finsh/cmd.o
__fsym_list_device_name                           build/kernel/components/finsh/cmd.o
__fsym_list_event                                 build/kernel/components/finsh/cmd.o
__fsym_list_event_desc                            build/kernel/components/finsh/cmd.o
__fsym_list_event_name                            build/kernel/components/finsh/cmd.o
__fsym_list_mailbox                               build/kernel/components/finsh/cmd.o
__fsym_list_mailbox_desc                          build/kernel/components/finsh/cmd.o
__fsym_list_mailbox_name                          build/kernel/components/finsh/cmd.o
__fsym_list_mem                                   build/kernel/src/mem.o
__fsym_list_mem_desc                              build/kernel/src/mem.o
__fsym_list_mem_name                              build/kernel/src/mem.o
__fsym_list_mempool                               build/kernel/components/finsh/cmd.o
__fsym_list_mempool_desc                          build/kernel/components/finsh/cmd.o
__fsym_list_mempool_name                          build/kernel/components/finsh/cmd.o
__fsym_list_msgqueue                              build/kernel/components/finsh/cmd.o
__fsym_list_msgqueue_desc                         build/kernel/components/finsh/cmd.o
__fsym_list_msgqueue_name                         build/kernel/components/finsh/cmd.o
__fsym_list_mutex                                 build/kernel/components/finsh/cmd.o
__fsym_list_mutex_desc                            build/kernel/components/finsh/cmd.o
__fsym_list_mutex_name                            build/kernel/components/finsh/cmd.o
__fsym_list_name                                  build/kernel/components/finsh/cmd.o
__fsym_list_sem                                   build/kernel/components/finsh/cmd.o
__fsym_list_sem_desc                              build/kernel/components/finsh/cmd.o
__fsym_list_sem_name                              build/kernel/components/finsh/cmd.o
__fsym_list_thread                                build/kernel/components/finsh/cmd.o
__fsym_list_thread_desc                           build/kernel/components/finsh/cmd.o
__fsym_list_thread_name                           build/kernel/components/finsh/cmd.o
__fsym_list_timer                                 build/kernel/components/finsh/cmd.o
__fsym_list_timer_desc                            build/kernel/components/finsh/cmd.o
__fsym_list_timer_name                            build/kernel/components/finsh/cmd.o
__fsym_pinMode                                    build/kernel/components/drivers/misc/pin.o
__fsym_pinMode_desc                               build/kernel/components/drivers/misc/pin.o
__fsym_pinMode_name                               build/kernel/components/drivers/misc/pin.o
__fsym_pinRead                                    build/kernel/components/drivers/misc/pin.o
__fsym_pinRead_desc                               build/kernel/components/drivers/misc/pin.o
__fsym_pinRead_name                               build/kernel/components/drivers/misc/pin.o
__fsym_pinWrite                                   build/kernel/components/drivers/misc/pin.o
__fsym_pinWrite_desc                              build/kernel/components/drivers/misc/pin.o
__fsym_pinWrite_name                              build/kernel/components/drivers/misc/pin.o
__fsym_version                                    build/kernel/components/finsh/cmd.o
__fsym_version_desc                               build/kernel/components/finsh/cmd.o
__fsym_version_name                               build/kernel/components/finsh/cmd.o
__fsymtab_end                                     build/kernel/components/finsh/shell.o
__fsymtab_start                                   build/kernel/components/finsh/shell.o
__init_array_end                                  /home/ldq/rk-linux/prebuilts/gcc-arm-none-eabi-7-2018-q2-update/bin/../lib/gcc/arm-none-eabi/7.3.1/../../../../arm-none-eabi/lib/thumb/v7-m/libc.a(lib_a-init.o)
__init_array_start                                /home/ldq/rk-linux/prebuilts/gcc-arm-none-eabi-7-2018-q2-update/bin/../lib/gcc/arm-none-eabi/7.3.1/../../../../arm-none-eabi/lib/thumb/v7-m/libc.a(lib_a-init.o)
__isleap                                          build/kernel/components/libc/compilers/minilibc/time.o
__libc_fini                                       /home/ldq/rk-linux/prebuilts/gcc-arm-none-eabi-7-2018-q2-update/bin/../lib/gcc/arm-none-eabi/7.3.1/../../../../arm-none-eabi/lib/thumb/v7-m/libc.a(lib_a-__call_atexit.o)
__libc_fini_array                                 /home/ldq/rk-linux/prebuilts/gcc-arm-none-eabi-7-2018-q2-update/bin/../lib/gcc/arm-none-eabi/7.3.1/../../../../arm-none-eabi/lib/thumb/v7-m/libc.a(lib_a-fini.o)
                                                  /home/ldq/rk-linux/prebuilts/gcc-arm-none-eabi-7-2018-q2-update/bin/../lib/gcc/arm-none-eabi/7.3.1/../../../../arm-none-eabi/lib/thumb/v7-m/libc.a(lib_a-__call_atexit.o)
                                                  /home/ldq/rk-linux/prebuilts/gcc-arm-none-eabi-7-2018-q2-update/bin/../lib/gcc/arm-none-eabi/7.3.1/../../../../arm-none-eabi/lib/thumb/v7-m/crt0.o
__libc_init_array                                 /home/ldq/rk-linux/prebuilts/gcc-arm-none-eabi-7-2018-q2-update/bin/../lib/gcc/arm-none-eabi/7.3.1/../../../../arm-none-eabi/lib/thumb/v7-m/libc.a(lib_a-init.o)
                                                  /home/ldq/rk-linux/prebuilts/gcc-arm-none-eabi-7-2018-q2-update/bin/../lib/gcc/arm-none-eabi/7.3.1/../../../../arm-none-eabi/lib/thumb/v7-m/crt0.o
__lock___arc4random_mutex                         /home/ldq/rk-linux/prebuilts/gcc-arm-none-eabi-7-2018-q2-update/bin/../lib/gcc/arm-none-eabi/7.3.1/../../../../arm-none-eabi/lib/thumb/v7-m/libc.a(lib_a-lock.o)
__lock___at_quick_exit_mutex                      /home/ldq/rk-linux/prebuilts/gcc-arm-none-eabi-7-2018-q2-update/bin/../lib/gcc/arm-none-eabi/7.3.1/../../../../arm-none-eabi/lib/thumb/v7-m/libc.a(lib_a-lock.o)
__lock___atexit_recursive_mutex                   /home/ldq/rk-linux/prebuilts/gcc-arm-none-eabi-7-2018-q2-update/bin/../lib/gcc/arm-none-eabi/7.3.1/../../../../arm-none-eabi/lib/thumb/v7-m/libc.a(lib_a-lock.o)
                                                  /home/ldq/rk-linux/prebuilts/gcc-arm-none-eabi-7-2018-q2-update/bin/../lib/gcc/arm-none-eabi/7.3.1/../../../../arm-none-eabi/lib/thumb/v7-m/libc.a(lib_a-__call_atexit.o)
__lock___dd_hash_mutex                            /home/ldq/rk-linux/prebuilts/gcc-arm-none-eabi-7-2018-q2-update/bin/../lib/gcc/arm-none-eabi/7.3.1/../../../../arm-none-eabi/lib/thumb/v7-m/libc.a(lib_a-lock.o)
__lock___env_recursive_mutex                      /home/ldq/rk-linux/prebuilts/gcc-arm-none-eabi-7-2018-q2-update/bin/../lib/gcc/arm-none-eabi/7.3.1/../../../../arm-none-eabi/lib/thumb/v7-m/libc.a(lib_a-lock.o)
__lock___malloc_recursive_mutex                   /home/ldq/rk-linux/prebuilts/gcc-arm-none-eabi-7-2018-q2-update/bin/../lib/gcc/arm-none-eabi/7.3.1/../../../../arm-none-eabi/lib/thumb/v7-m/libc.a(lib_a-lock.o)
__lock___sfp_recursive_mutex                      /home/ldq/rk-linux/prebuilts/gcc-arm-none-eabi-7-2018-q2-update/bin/../lib/gcc/arm-none-eabi/7.3.1/../../../../arm-none-eabi/lib/thumb/v7-m/libc.a(lib_a-lock.o)
__lock___sinit_recursive_mutex                    /home/ldq/rk-linux/prebuilts/gcc-arm-none-eabi-7-2018-q2-update/bin/../lib/gcc/arm-none-eabi/7.3.1/../../../../arm-none-eabi/lib/thumb/v7-m/libc.a(lib_a-lock.o)
__lock___tz_mutex                                 /home/ldq/rk-linux/prebuilts/gcc-arm-none-eabi-7-2018-q2-update/bin/../lib/gcc/arm-none-eabi/7.3.1/../../../../arm-none-eabi/lib/thumb/v7-m/libc.a(lib_a-lock.o)
__muldf3                                          /home/ldq/rk-linux/prebuilts/gcc-arm-none-eabi-7-2018-q2-update/bin/../lib/gcc/arm-none-eabi/7.3.1/thumb/v7-m/libgcc.a(_arm_muldivdf3.o)
__preinit_array_end                               /home/ldq/rk-linux/prebuilts/gcc-arm-none-eabi-7-2018-q2-update/bin/../lib/gcc/arm-none-eabi/7.3.1/../../../../arm-none-eabi/lib/thumb/v7-m/libc.a(lib_a-init.o)
__preinit_array_start                             /home/ldq/rk-linux/prebuilts/gcc-arm-none-eabi-7-2018-q2-update/bin/../lib/gcc/arm-none-eabi/7.3.1/../../../../arm-none-eabi/lib/thumb/v7-m/libc.a(lib_a-init.o)
__register_exitproc                               /home/ldq/rk-linux/prebuilts/gcc-arm-none-eabi-7-2018-q2-update/bin/../lib/gcc/arm-none-eabi/7.3.1/../../../../arm-none-eabi/lib/thumb/v7-m/libc.a(lib_a-__atexit.o)
                                                  /home/ldq/rk-linux/prebuilts/gcc-arm-none-eabi-7-2018-q2-update/bin/../lib/gcc/arm-none-eabi/7.3.1/../../../../arm-none-eabi/lib/thumb/v7-m/libc.a(lib_a-atexit.o)
__register_frame_info                             /home/ldq/rk-linux/prebuilts/gcc-arm-none-eabi-7-2018-q2-update/bin/../lib/gcc/arm-none-eabi/7.3.1/thumb/v7-m/crtbegin.o
__retarget_lock_acquire                           /home/ldq/rk-linux/prebuilts/gcc-arm-none-eabi-7-2018-q2-update/bin/../lib/gcc/arm-none-eabi/7.3.1/../../../../arm-none-eabi/lib/thumb/v7-m/libc.a(lib_a-lock.o)
__retarget_lock_acquire_recursive                 /home/ldq/rk-linux/prebuilts/gcc-arm-none-eabi-7-2018-q2-update/bin/../lib/gcc/arm-none-eabi/7.3.1/../../../../arm-none-eabi/lib/thumb/v7-m/libc.a(lib_a-lock.o)
                                                  /home/ldq/rk-linux/prebuilts/gcc-arm-none-eabi-7-2018-q2-update/bin/../lib/gcc/arm-none-eabi/7.3.1/../../../../arm-none-eabi/lib/thumb/v7-m/libc.a(lib_a-__atexit.o)
                                                  /home/ldq/rk-linux/prebuilts/gcc-arm-none-eabi-7-2018-q2-update/bin/../lib/gcc/arm-none-eabi/7.3.1/../../../../arm-none-eabi/lib/thumb/v7-m/libc.a(lib_a-__call_atexit.o)
__retarget_lock_close                             /home/ldq/rk-linux/prebuilts/gcc-arm-none-eabi-7-2018-q2-update/bin/../lib/gcc/arm-none-eabi/7.3.1/../../../../arm-none-eabi/lib/thumb/v7-m/libc.a(lib_a-lock.o)
__retarget_lock_close_recursive                   /home/ldq/rk-linux/prebuilts/gcc-arm-none-eabi-7-2018-q2-update/bin/../lib/gcc/arm-none-eabi/7.3.1/../../../../arm-none-eabi/lib/thumb/v7-m/libc.a(lib_a-lock.o)
__retarget_lock_init                              /home/ldq/rk-linux/prebuilts/gcc-arm-none-eabi-7-2018-q2-update/bin/../lib/gcc/arm-none-eabi/7.3.1/../../../../arm-none-eabi/lib/thumb/v7-m/libc.a(lib_a-lock.o)
__retarget_lock_init_recursive                    /home/ldq/rk-linux/prebuilts/gcc-arm-none-eabi-7-2018-q2-update/bin/../lib/gcc/arm-none-eabi/7.3.1/../../../../arm-none-eabi/lib/thumb/v7-m/libc.a(lib_a-lock.o)
__retarget_lock_release                           /home/ldq/rk-linux/prebuilts/gcc-arm-none-eabi-7-2018-q2-update/bin/../lib/gcc/arm-none-eabi/7.3.1/../../../../arm-none-eabi/lib/thumb/v7-m/libc.a(lib_a-lock.o)
__retarget_lock_release_recursive                 /home/ldq/rk-linux/prebuilts/gcc-arm-none-eabi-7-2018-q2-update/bin/../lib/gcc/arm-none-eabi/7.3.1/../../../../arm-none-eabi/lib/thumb/v7-m/libc.a(lib_a-lock.o)
                                                  /home/ldq/rk-linux/prebuilts/gcc-arm-none-eabi-7-2018-q2-update/bin/../lib/gcc/arm-none-eabi/7.3.1/../../../../arm-none-eabi/lib/thumb/v7-m/libc.a(lib_a-__atexit.o)
                                                  /home/ldq/rk-linux/prebuilts/gcc-arm-none-eabi-7-2018-q2-update/bin/../lib/gcc/arm-none-eabi/7.3.1/../../../../arm-none-eabi/lib/thumb/v7-m/libc.a(lib_a-__call_atexit.o)
__retarget_lock_try_acquire                       /home/ldq/rk-linux/prebuilts/gcc-arm-none-eabi-7-2018-q2-update/bin/../lib/gcc/arm-none-eabi/7.3.1/../../../../arm-none-eabi/lib/thumb/v7-m/libc.a(lib_a-lock.o)
__retarget_lock_try_acquire_recursive             /home/ldq/rk-linux/prebuilts/gcc-arm-none-eabi-7-2018-q2-update/bin/../lib/gcc/arm-none-eabi/7.3.1/../../../../arm-none-eabi/lib/thumb/v7-m/libc.a(lib_a-lock.o)
__rt_ffs                                          build/kernel/libcpu/arm/cortex-m3/cpuport.o
                                                  build/kernel/src/scheduler.o
__rt_init_finsh_system_init                       build/kernel/components/finsh/shell.o
__rt_init_rti_board_end                           build/kernel/src/components.o
__rt_init_rti_board_start                         build/kernel/src/components.o
__rt_init_rti_end                                 build/kernel/src/components.o
__rt_init_rti_start                               build/kernel/src/components.o
__spm                                             build/kernel/components/libc/compilers/minilibc/time.o
__stack                                           /home/ldq/rk-linux/prebuilts/gcc-arm-none-eabi-7-2018-q2-update/bin/../lib/gcc/arm-none-eabi/7.3.1/../../../../arm-none-eabi/lib/thumb/v7-m/crt0.o
__subdf3                                          /home/ldq/rk-linux/prebuilts/gcc-arm-none-eabi-7-2018-q2-update/bin/../lib/gcc/arm-none-eabi/7.3.1/thumb/v7-m/libgcc.a(_arm_addsubdf3.o)
__vsymtab_end                                     build/kernel/components/finsh/shell.o
__vsymtab_start                                   build/kernel/components/finsh/shell.o
__wqueue_default_wake                             build/kernel/components/drivers/src/waitqueue.o
_ctype                                            build/kernel/components/libc/compilers/minilibc/string.o
_ebss                                             /home/ldq/rk-linux/rt-thread/bsp/stm32/libraries/STM32F1xx_HAL/CMSIS/Device/ST/STM32F1xx/Source/Templates/gcc/startup_stm32f103xe.o
_edata                                            /home/ldq/rk-linux/rt-thread/bsp/stm32/libraries/STM32F1xx_HAL/CMSIS/Device/ST/STM32F1xx/Source/Templates/gcc/startup_stm32f103xe.o
_estack                                           /home/ldq/rk-linux/rt-thread/bsp/stm32/libraries/STM32F1xx_HAL/CMSIS/Device/ST/STM32F1xx/Source/Templates/gcc/startup_stm32f103xe.o
_exit                                             /home/ldq/rk-linux/prebuilts/gcc-arm-none-eabi-7-2018-q2-update/bin/../lib/gcc/arm-none-eabi/7.3.1/../../../../arm-none-eabi/lib/thumb/v7-m/libc.a(lib_a-exit.o)
_fini                                             /home/ldq/rk-linux/prebuilts/gcc-arm-none-eabi-7-2018-q2-update/bin/../lib/gcc/arm-none-eabi/7.3.1/thumb/v7-m/crti.o
                                                  /home/ldq/rk-linux/prebuilts/gcc-arm-none-eabi-7-2018-q2-update/bin/../lib/gcc/arm-none-eabi/7.3.1/../../../../arm-none-eabi/lib/thumb/v7-m/libc.a(lib_a-fini.o)
_gettimeofday                                     build/kernel/components/libc/compilers/minilibc/time.o
_global_impure_ptr                                /home/ldq/rk-linux/prebuilts/gcc-arm-none-eabi-7-2018-q2-update/bin/../lib/gcc/arm-none-eabi/7.3.1/../../../../arm-none-eabi/lib/thumb/v7-m/libc.a(lib_a-impure.o)
                                                  /home/ldq/rk-linux/prebuilts/gcc-arm-none-eabi-7-2018-q2-update/bin/../lib/gcc/arm-none-eabi/7.3.1/../../../../arm-none-eabi/lib/thumb/v7-m/libc.a(lib_a-__atexit.o)
                                                  /home/ldq/rk-linux/prebuilts/gcc-arm-none-eabi-7-2018-q2-update/bin/../lib/gcc/arm-none-eabi/7.3.1/../../../../arm-none-eabi/lib/thumb/v7-m/libc.a(lib_a-__call_atexit.o)
                                                  /home/ldq/rk-linux/prebuilts/gcc-arm-none-eabi-7-2018-q2-update/bin/../lib/gcc/arm-none-eabi/7.3.1/../../../../arm-none-eabi/lib/thumb/v7-m/libc.a(lib_a-exit.o)
_impure_ptr                                       /home/ldq/rk-linux/prebuilts/gcc-arm-none-eabi-7-2018-q2-update/bin/../lib/gcc/arm-none-eabi/7.3.1/../../../../arm-none-eabi/lib/thumb/v7-m/libc.a(lib_a-impure.o)
_init                                             /home/ldq/rk-linux/prebuilts/gcc-arm-none-eabi-7-2018-q2-update/bin/../lib/gcc/arm-none-eabi/7.3.1/thumb/v7-m/crti.o
                                                  /home/ldq/rk-linux/prebuilts/gcc-arm-none-eabi-7-2018-q2-update/bin/../lib/gcc/arm-none-eabi/7.3.1/../../../../arm-none-eabi/lib/thumb/v7-m/libc.a(lib_a-init.o)
_mainCRTStartup                                   /home/ldq/rk-linux/prebuilts/gcc-arm-none-eabi-7-2018-q2-update/bin/../lib/gcc/arm-none-eabi/7.3.1/../../../../arm-none-eabi/lib/thumb/v7-m/crt0.o
_rt_errno                                         build/kernel/src/kservice.o
_sbss                                             /home/ldq/rk-linux/rt-thread/bsp/stm32/libraries/STM32F1xx_HAL/CMSIS/Device/ST/STM32F1xx/Source/Templates/gcc/startup_stm32f103xe.o
_sdata                                            /home/ldq/rk-linux/rt-thread/bsp/stm32/libraries/STM32F1xx_HAL/CMSIS/Device/ST/STM32F1xx/Source/Templates/gcc/startup_stm32f103xe.o
_sidata                                           /home/ldq/rk-linux/rt-thread/bsp/stm32/libraries/STM32F1xx_HAL/CMSIS/Device/ST/STM32F1xx/Source/Templates/gcc/startup_stm32f103xe.o
_start                                            /home/ldq/rk-linux/prebuilts/gcc-arm-none-eabi-7-2018-q2-update/bin/../lib/gcc/arm-none-eabi/7.3.1/../../../../arm-none-eabi/lib/thumb/v7-m/crt0.o
_syscall_table_begin                              build/kernel/components/finsh/symbol.o
                                                  build/kernel/components/finsh/msh.o
                                                  build/kernel/components/finsh/cmd.o
                                                  build/kernel/components/finsh/shell.o
_syscall_table_end                                build/kernel/components/finsh/symbol.o
                                                  build/kernel/components/finsh/msh.o
                                                  build/kernel/components/finsh/cmd.o
                                                  build/kernel/components/finsh/shell.o
_sysvar_table_begin                               build/kernel/components/finsh/symbol.o
                                                  build/kernel/components/finsh/shell.o
_sysvar_table_end                                 build/kernel/components/finsh/symbol.o
                                                  build/kernel/components/finsh/shell.o
asctime                                           build/kernel/components/libc/compilers/minilibc/time.o
asctime_r                                         build/kernel/components/libc/compilers/minilibc/time.o
atexit                                            /home/ldq/rk-linux/prebuilts/gcc-arm-none-eabi-7-2018-q2-update/bin/../lib/gcc/arm-none-eabi/7.3.1/../../../../arm-none-eabi/lib/thumb/v7-m/libc.a(lib_a-atexit.o)
                                                  /home/ldq/rk-linux/prebuilts/gcc-arm-none-eabi-7-2018-q2-update/bin/../lib/gcc/arm-none-eabi/7.3.1/../../../../arm-none-eabi/lib/thumb/v7-m/libc.a(lib_a-__call_atexit.o)
                                                  /home/ldq/rk-linux/prebuilts/gcc-arm-none-eabi-7-2018-q2-update/bin/../lib/gcc/arm-none-eabi/7.3.1/../../../../arm-none-eabi/lib/thumb/v7-m/crt0.o
atoi                                              build/kernel/components/libc/compilers/minilibc/stdlib.o
atol                                              build/kernel/components/libc/compilers/minilibc/stdlib.o
calloc                                            build/kernel/components/libc/compilers/minilibc/stdlib.o
clock                                             build/kernel/components/libc/compilers/minilibc/time.o
cmd_free                                          build/kernel/components/finsh/msh_cmd.o
cmd_ps                                            build/kernel/components/finsh/msh_cmd.o
cmd_time                                          build/kernel/components/finsh/msh_cmd.o
cos                                               build/kernel/components/libc/compilers/minilibc/math.o
ctime                                             build/kernel/components/libc/compilers/minilibc/time.o
entry                                             build/kernel/src/components.o
                                                  /home/ldq/rk-linux/rt-thread/bsp/stm32/libraries/STM32F1xx_HAL/CMSIS/Device/ST/STM32F1xx/Source/Templates/gcc/startup_stm32f103xe.o
exit                                              /home/ldq/rk-linux/prebuilts/gcc-arm-none-eabi-7-2018-q2-update/bin/../lib/gcc/arm-none-eabi/7.3.1/../../../../arm-none-eabi/lib/thumb/v7-m/libc.a(lib_a-exit.o)
                                                  /home/ldq/rk-linux/prebuilts/gcc-arm-none-eabi-7-2018-q2-update/bin/../lib/gcc/arm-none-eabi/7.3.1/../../../../arm-none-eabi/lib/thumb/v7-m/crt0.o
finsh_get_device                                  build/kernel/components/finsh/shell.o
finsh_get_echo                                    build/kernel/components/finsh/shell.o
finsh_get_prompt                                  build/kernel/components/finsh/shell.o
finsh_get_prompt_mode                             build/kernel/components/finsh/shell.o
finsh_set_device                                  build/kernel/components/finsh/shell.o
finsh_set_echo                                    build/kernel/components/finsh/shell.o
finsh_set_prompt                                  build/kernel/components/finsh/shell.o
finsh_set_prompt_mode                             build/kernel/components/finsh/shell.o
finsh_system_function_init                        build/kernel/components/finsh/shell.o
finsh_system_init                                 build/kernel/components/finsh/shell.o
finsh_system_var_init                             build/kernel/components/finsh/shell.o
finsh_thread_entry                                build/kernel/components/finsh/shell.o
free                                              build/kernel/components/libc/compilers/minilibc/stdlib.o
                                                  /home/ldq/rk-linux/prebuilts/gcc-arm-none-eabi-7-2018-q2-update/bin/../lib/gcc/arm-none-eabi/7.3.1/../../../../arm-none-eabi/lib/thumb/v7-m/libc.a(lib_a-__call_atexit.o)
g_pfnVectors                                      /home/ldq/rk-linux/rt-thread/bsp/stm32/libraries/STM32F1xx_HAL/CMSIS/Device/ST/STM32F1xx/Source/Templates/gcc/startup_stm32f103xe.o
gettimeofday                                      build/kernel/components/libc/compilers/minilibc/time.o
gmtime_r                                          build/kernel/components/libc/compilers/minilibc/time.o
hardware_init_hook                                /home/ldq/rk-linux/prebuilts/gcc-arm-none-eabi-7-2018-q2-update/bin/../lib/gcc/arm-none-eabi/7.3.1/../../../../arm-none-eabi/lib/thumb/v7-m/crt0.o
hello                                             build/kernel/components/finsh/cmd.o
isalpha                                           build/kernel/components/libc/compilers/minilibc/ctype.o
isdigit                                           build/kernel/components/libc/compilers/minilibc/ctype.o
isprint                                           build/kernel/components/libc/compilers/minilibc/ctype.o
isspace                                           build/kernel/components/libc/compilers/minilibc/ctype.o
list                                              build/kernel/components/finsh/cmd.o
list_device                                       build/kernel/components/finsh/cmd.o
list_event                                        build/kernel/components/finsh/cmd.o
list_mailbox                                      build/kernel/components/finsh/cmd.o
list_mem                                          build/kernel/src/mem.o
                                                  build/kernel/components/finsh/msh_cmd.o
list_mempool                                      build/kernel/components/finsh/cmd.o
list_msgqueue                                     build/kernel/components/finsh/cmd.o
list_mutex                                        build/kernel/components/finsh/cmd.o
list_sem                                          build/kernel/components/finsh/cmd.o
list_thread                                       build/kernel/components/finsh/cmd.o
                                                  build/kernel/components/finsh/msh_cmd.o
                                                  build/kernel/libcpu/arm/cortex-m3/cpuport.o
                                                  build/kernel/src/scheduler.o
list_timer                                        build/kernel/components/finsh/cmd.o
localtime                                         build/kernel/components/libc/compilers/minilibc/time.o
localtime_r                                       build/kernel/components/libc/compilers/minilibc/time.o
main                                              build/applications/main.o
                                                  build/kernel/src/components.o
                                                  /home/ldq/rk-linux/prebuilts/gcc-arm-none-eabi-7-2018-q2-update/bin/../lib/gcc/arm-none-eabi/7.3.1/../../../../arm-none-eabi/lib/thumb/v7-m/crt0.o
main_thread_entry                                 build/kernel/src/components.o
malloc                                            build/kernel/components/libc/compilers/minilibc/stdlib.o
                                                  /home/ldq/rk-linux/prebuilts/gcc-arm-none-eabi-7-2018-q2-update/bin/../lib/gcc/arm-none-eabi/7.3.1/../../../../arm-none-eabi/lib/thumb/v7-m/libc.a(lib_a-__atexit.o)
memcmp                                            build/kernel/src/kservice.o
                                                  build/kernel/components/finsh/shell.o
memcpy                                            build/kernel/src/kservice.o
                                                  build/kernel/components/finsh/cmd.o
                                                  build/kernel/components/finsh/shell.o
                                                  build/kernel/components/drivers/src/ringbuffer.o
memmove                                           build/kernel/src/kservice.o
memset                                            build/kernel/src/kservice.o
                                                  build/kernel/components/finsh/msh.o
                                                  build/kernel/components/finsh/shell.o
                                                  build/board/board.o
                                                  /home/ldq/rk-linux/prebuilts/gcc-arm-none-eabi-7-2018-q2-update/bin/../lib/gcc/arm-none-eabi/7.3.1/../../../../arm-none-eabi/lib/thumb/v7-m/crt0.o
mktime                                            build/kernel/components/libc/compilers/minilibc/time.o
msh_auto_complete                                 build/kernel/components/finsh/msh.o
                                                  build/kernel/components/finsh/shell.o
msh_exec                                          build/kernel/components/finsh/msh.o
                                                  build/kernel/components/finsh/shell.o
msh_help                                          build/kernel/components/finsh/msh.o
msh_is_used                                       build/kernel/components/finsh/msh.o
                                                  build/kernel/components/finsh/shell.o
qsort                                             build/kernel/components/libc/compilers/minilibc/qsort.o
rand                                              build/kernel/components/libc/compilers/minilibc/rand.o
rand_r                                            build/kernel/components/libc/compilers/minilibc/rand.o
random                                            build/kernel/components/libc/compilers/minilibc/rand.o
realloc                                           build/kernel/components/libc/compilers/minilibc/stdlib.o
rt_application_init                               build/kernel/src/components.o
rt_assert_handler                                 build/kernel/src/kservice.o
                                                  /home/ldq/rk-linux/rt-thread/bsp/stm32/libraries/HAL_Drivers/drv_usart.o
                                                  build/kernel/components/libc/compilers/minilibc/time.o
                                                  build/kernel/components/finsh/msh.o
                                                  build/kernel/components/finsh/shell.o
                                                  build/kernel/components/drivers/src/workqueue.o
                                                  build/kernel/components/drivers/src/waitqueue.o
                                                  build/kernel/components/drivers/src/ringbuffer.o
                                                  build/kernel/components/drivers/src/ringblk_buf.o
                                                  build/kernel/components/drivers/src/pipe.o
                                                  build/kernel/components/drivers/src/dataqueue.o
                                                  build/kernel/components/drivers/src/completion.o
                                                  build/kernel/components/drivers/serial/serial.o
                                                  build/kernel/components/drivers/misc/pin.o
                                                  build/kernel/libcpu/arm/cortex-m3/cpuport.o
                                                  build/kernel/libcpu/arm/common/showmem.o
                                                  build/kernel/src/timer.o
                                                  build/kernel/src/thread.o
                                                  build/kernel/src/scheduler.o
                                                  build/kernel/src/object.o
                                                  build/kernel/src/mempool.o
                                                  build/kernel/src/mem.o
                                                  build/kernel/src/ipc.o
                                                  build/kernel/src/idle.o
                                                  build/kernel/src/device.o
                                                  build/kernel/src/components.o
rt_assert_hook                                    build/kernel/src/kservice.o
rt_assert_set_hook                                build/kernel/src/kservice.o
rt_calloc                                         build/kernel/src/mem.o
                                                  build/kernel/components/libc/compilers/minilibc/stdlib.o
                                                  build/kernel/components/finsh/shell.o
rt_completion_done                                build/kernel/components/drivers/src/completion.o
                                                  build/kernel/components/drivers/serial/serial.o
rt_completion_init                                build/kernel/components/drivers/src/completion.o
                                                  build/kernel/components/drivers/serial/serial.o
rt_completion_wait                                build/kernel/components/drivers/src/completion.o
                                                  build/kernel/components/drivers/serial/serial.o
rt_components_board_init                          build/kernel/src/components.o
                                                  /home/ldq/rk-linux/rt-thread/bsp/stm32/libraries/HAL_Drivers/drv_common.o
rt_components_init                                build/kernel/src/components.o
rt_console_get_device                             build/kernel/src/kservice.o
                                                  build/kernel/components/finsh/shell.o
rt_console_set_device                             build/kernel/src/kservice.o
                                                  /home/ldq/rk-linux/rt-thread/bsp/stm32/libraries/HAL_Drivers/drv_common.o
rt_critical_level                                 build/kernel/src/scheduler.o
rt_current_priority                               build/kernel/src/scheduler.o
rt_current_thread                                 build/kernel/src/scheduler.o
                                                  build/kernel/src/thread.o
rt_data_queue_init                                build/kernel/components/drivers/src/dataqueue.o
                                                  build/kernel/components/drivers/serial/serial.o
rt_data_queue_peak                                build/kernel/components/drivers/src/dataqueue.o
                                                  build/kernel/components/drivers/serial/serial.o
rt_data_queue_pop                                 build/kernel/components/drivers/src/dataqueue.o
                                                  build/kernel/components/drivers/serial/serial.o
rt_data_queue_push                                build/kernel/components/drivers/src/dataqueue.o
                                                  build/kernel/components/drivers/serial/serial.o
rt_data_queue_reset                               build/kernel/components/drivers/src/dataqueue.o
rt_delayed_work_init                              build/kernel/components/drivers/src/workqueue.o
rt_device_close                                   build/kernel/src/device.o
                                                  build/kernel/components/finsh/shell.o
                                                  build/kernel/src/kservice.o
rt_device_control                                 build/kernel/src/device.o
                                                  build/kernel/components/libc/compilers/minilibc/time.o
rt_device_create                                  build/kernel/src/device.o
rt_device_destroy                                 build/kernel/src/device.o
rt_device_find                                    build/kernel/src/device.o
                                                  build/kernel/components/libc/compilers/minilibc/time.o
                                                  build/kernel/components/finsh/shell.o
                                                  build/kernel/components/drivers/src/pipe.o
                                                  build/kernel/src/kservice.o
rt_device_init                                    build/kernel/src/device.o
rt_device_init_all                                build/kernel/src/device.o
rt_device_open                                    build/kernel/src/device.o
                                                  build/kernel/components/finsh/shell.o
                                                  build/kernel/src/kservice.o
rt_device_pin_register                            build/kernel/components/drivers/misc/pin.o
                                                  /home/ldq/rk-linux/rt-thread/bsp/stm32/libraries/HAL_Drivers/drv_gpio.o
rt_device_read                                    build/kernel/src/device.o
                                                  build/kernel/components/finsh/shell.o
rt_device_register                                build/kernel/src/device.o
                                                  build/kernel/components/drivers/src/pipe.o
                                                  build/kernel/components/drivers/serial/serial.o
                                                  build/kernel/components/drivers/misc/pin.o
rt_device_set_rx_indicate                         build/kernel/src/device.o
                                                  build/kernel/components/finsh/shell.o
rt_device_set_tx_complete                         build/kernel/src/device.o
rt_device_unregister                              build/kernel/src/device.o
                                                  build/kernel/components/drivers/src/pipe.o
rt_device_write                                   build/kernel/src/device.o
                                                  build/kernel/src/kservice.o
rt_enter_critical                                 build/kernel/src/scheduler.o
                                                  build/kernel/components/drivers/src/workqueue.o
                                                  build/kernel/components/drivers/src/dataqueue.o
                                                  build/kernel/src/thread.o
                                                  build/kernel/src/object.o
                                                  build/kernel/src/idle.o
                                                  build/kernel/src/device.o
rt_event_control                                  build/kernel/src/ipc.o
rt_event_create                                   build/kernel/src/ipc.o
rt_event_delete                                   build/kernel/src/ipc.o
rt_event_detach                                   build/kernel/src/ipc.o
rt_event_init                                     build/kernel/src/ipc.o
rt_event_recv                                     build/kernel/src/ipc.o
rt_event_send                                     build/kernel/src/ipc.o
rt_exit_critical                                  build/kernel/src/scheduler.o
                                                  build/kernel/components/drivers/src/workqueue.o
                                                  build/kernel/components/drivers/src/dataqueue.o
                                                  build/kernel/src/thread.o
                                                  build/kernel/src/object.o
                                                  build/kernel/src/idle.o
                                                  build/kernel/src/device.o
rt_free                                           build/kernel/src/mem.o
                                                  build/kernel/components/libc/compilers/minilibc/stdlib.o
                                                  build/kernel/components/finsh/shell.o
                                                  build/kernel/components/drivers/src/workqueue.o
                                                  build/kernel/components/drivers/src/ringbuffer.o
                                                  build/kernel/components/drivers/src/ringblk_buf.o
                                                  build/kernel/components/drivers/src/pipe.o
                                                  build/kernel/components/drivers/serial/serial.o
                                                  build/kernel/src/object.o
                                                  build/kernel/src/mempool.o
                                                  build/kernel/src/kservice.o
                                                  build/kernel/src/ipc.o
                                                  build/kernel/src/idle.o
                                                  build/kernel/src/device.o
rt_free_align                                     build/kernel/src/kservice.o
rt_free_sethook                                   build/kernel/src/mem.o
rt_get_errno                                      build/kernel/src/kservice.o
rt_hw_backtrace                                   build/kernel/libcpu/arm/common/backtrace.o
rt_hw_board_init                                  /home/ldq/rk-linux/rt-thread/bsp/stm32/libraries/HAL_Drivers/drv_common.o
                                                  build/kernel/src/components.o
rt_hw_console_output                              build/kernel/src/kservice.o
rt_hw_context_switch                              build/kernel/libcpu/arm/cortex-m3/context_gcc.o
                                                  build/kernel/src/scheduler.o
rt_hw_context_switch_interrupt                    build/kernel/libcpu/arm/cortex-m3/context_gcc.o
                                                  build/kernel/src/scheduler.o
rt_hw_context_switch_to                           build/kernel/libcpu/arm/cortex-m3/context_gcc.o
                                                  build/kernel/src/scheduler.o
rt_hw_cpu_reset                                   build/kernel/libcpu/arm/cortex-m3/cpuport.o
                                                  /home/ldq/rk-linux/rt-thread/bsp/stm32/libraries/HAL_Drivers/drv_common.o
rt_hw_cpu_shutdown                                build/kernel/libcpu/arm/cortex-m3/cpuport.o
rt_hw_exception_install                           build/kernel/libcpu/arm/cortex-m3/cpuport.o
rt_hw_hard_fault_exception                        build/kernel/libcpu/arm/cortex-m3/cpuport.o
                                                  build/kernel/libcpu/arm/cortex-m3/context_gcc.o
rt_hw_interrupt_check                             build/kernel/libcpu/arm/cortex-m3/context_gcc.o
rt_hw_interrupt_disable                           build/kernel/libcpu/arm/cortex-m3/context_gcc.o
                                                  /home/ldq/rk-linux/rt-thread/bsp/stm32/libraries/HAL_Drivers/drv_usart.o
                                                  /home/ldq/rk-linux/rt-thread/bsp/stm32/libraries/HAL_Drivers/drv_gpio.o
                                                  build/kernel/components/finsh/cmd.o
                                                  build/kernel/components/drivers/src/workqueue.o
                                                  build/kernel/components/drivers/src/waitqueue.o
                                                  build/kernel/components/drivers/src/ringblk_buf.o
                                                  build/kernel/components/drivers/src/dataqueue.o
                                                  build/kernel/components/drivers/src/completion.o
                                                  build/kernel/components/drivers/serial/serial.o
                                                  build/kernel/src/timer.o
                                                  build/kernel/src/thread.o
                                                  build/kernel/src/scheduler.o
                                                  build/kernel/src/object.o
                                                  build/kernel/src/mempool.o
                                                  build/kernel/src/mem.o
                                                  build/kernel/src/irq.o
                                                  build/kernel/src/ipc.o
                                                  build/kernel/src/idle.o
                                                  build/kernel/src/components.o
                                                  build/kernel/src/clock.o
rt_hw_interrupt_enable                            build/kernel/libcpu/arm/cortex-m3/context_gcc.o
                                                  /home/ldq/rk-linux/rt-thread/bsp/stm32/libraries/HAL_Drivers/drv_usart.o
                                                  /home/ldq/rk-linux/rt-thread/bsp/stm32/libraries/HAL_Drivers/drv_gpio.o
                                                  build/kernel/components/finsh/cmd.o
                                                  build/kernel/components/drivers/src/workqueue.o
                                                  build/kernel/components/drivers/src/waitqueue.o
                                                  build/kernel/components/drivers/src/ringblk_buf.o
                                                  build/kernel/components/drivers/src/dataqueue.o
                                                  build/kernel/components/drivers/src/completion.o
                                                  build/kernel/components/drivers/serial/serial.o
                                                  build/kernel/src/timer.o
                                                  build/kernel/src/thread.o
                                                  build/kernel/src/scheduler.o
                                                  build/kernel/src/object.o
                                                  build/kernel/src/mempool.o
                                                  build/kernel/src/mem.o
                                                  build/kernel/src/irq.o
                                                  build/kernel/src/ipc.o
                                                  build/kernel/src/idle.o
                                                  build/kernel/src/clock.o
rt_hw_interrupt_thread_switch                     build/kernel/libcpu/arm/cortex-m3/context_gcc.o
rt_hw_pin_init                                    /home/ldq/rk-linux/rt-thread/bsp/stm32/libraries/HAL_Drivers/drv_gpio.o
                                                  /home/ldq/rk-linux/rt-thread/bsp/stm32/libraries/HAL_Drivers/drv_common.o
rt_hw_serial_isr                                  build/kernel/components/drivers/serial/serial.o
                                                  /home/ldq/rk-linux/rt-thread/bsp/stm32/libraries/HAL_Drivers/drv_usart.o
rt_hw_serial_register                             build/kernel/components/drivers/serial/serial.o
                                                  /home/ldq/rk-linux/rt-thread/bsp/stm32/libraries/HAL_Drivers/drv_usart.o
rt_hw_show_memory                                 build/kernel/libcpu/arm/common/showmem.o
rt_hw_stack_init                                  build/kernel/libcpu/arm/cortex-m3/cpuport.o
                                                  build/kernel/src/thread.o
rt_hw_systick_init                                /home/ldq/rk-linux/rt-thread/bsp/stm32/libraries/HAL_Drivers/drv_common.o
rt_hw_us_delay                                    /home/ldq/rk-linux/rt-thread/bsp/stm32/libraries/HAL_Drivers/drv_common.o
rt_hw_usart_init                                  /home/ldq/rk-linux/rt-thread/bsp/stm32/libraries/HAL_Drivers/drv_usart.o
                                                  /home/ldq/rk-linux/rt-thread/bsp/stm32/libraries/HAL_Drivers/drv_common.o
rt_interrupt_enter                                build/kernel/src/irq.o
                                                  /home/ldq/rk-linux/rt-thread/bsp/stm32/libraries/HAL_Drivers/drv_common.o
                                                  /home/ldq/rk-linux/rt-thread/bsp/stm32/libraries/HAL_Drivers/drv_usart.o
                                                  /home/ldq/rk-linux/rt-thread/bsp/stm32/libraries/HAL_Drivers/drv_gpio.o
rt_interrupt_enter_sethook                        build/kernel/src/irq.o
rt_interrupt_from_thread                          build/kernel/libcpu/arm/cortex-m3/cpuport.o
                                                  build/kernel/libcpu/arm/cortex-m3/context_gcc.o
rt_interrupt_get_nest                             build/kernel/src/irq.o
                                                  build/kernel/components/drivers/src/waitqueue.o
                                                  build/kernel/components/drivers/src/dataqueue.o
                                                  build/kernel/components/drivers/src/completion.o
                                                  build/kernel/src/object.o
                                                  build/kernel/src/mempool.o
                                                  build/kernel/src/mem.o
                                                  build/kernel/src/kservice.o
                                                  build/kernel/src/ipc.o
                                                  build/kernel/src/idle.o
rt_interrupt_leave                                build/kernel/src/irq.o
                                                  /home/ldq/rk-linux/rt-thread/bsp/stm32/libraries/HAL_Drivers/drv_common.o
                                                  /home/ldq/rk-linux/rt-thread/bsp/stm32/libraries/HAL_Drivers/drv_usart.o
                                                  /home/ldq/rk-linux/rt-thread/bsp/stm32/libraries/HAL_Drivers/drv_gpio.o
rt_interrupt_leave_sethook                        build/kernel/src/irq.o
rt_interrupt_nest                                 build/kernel/src/irq.o
                                                  build/kernel/src/scheduler.o
rt_interrupt_to_thread                            build/kernel/libcpu/arm/cortex-m3/cpuport.o
                                                  build/kernel/libcpu/arm/cortex-m3/context_gcc.o
rt_kprintf                                        build/kernel/src/kservice.o
                                                  build/kernel/components/finsh/msh.o
                                                  build/kernel/components/finsh/cmd.o
                                                  build/kernel/components/finsh/shell.o
                                                  build/kernel/components/drivers/src/waitqueue.o
                                                  build/kernel/components/drivers/src/dataqueue.o
                                                  build/kernel/components/drivers/src/completion.o
                                                  build/kernel/libcpu/arm/cortex-m3/cpuport.o
                                                  build/kernel/libcpu/arm/common/showmem.o
                                                  build/kernel/libcpu/arm/common/backtrace.o
                                                  build/kernel/src/scheduler.o
                                                  build/kernel/src/object.o
                                                  build/kernel/src/mempool.o
                                                  build/kernel/src/mem.o
                                                  build/kernel/src/ipc.o
                                                  build/kernel/src/idle.o
                                                  build/kernel/src/device.o
rt_kputs                                          build/kernel/src/kservice.o
rt_malloc                                         build/kernel/src/mem.o
                                                  build/kernel/components/libc/compilers/minilibc/stdlib.o
                                                  build/kernel/components/finsh/shell.o
                                                  build/kernel/components/drivers/src/workqueue.o
                                                  build/kernel/components/drivers/src/ringbuffer.o
                                                  build/kernel/components/drivers/src/ringblk_buf.o
                                                  build/kernel/components/drivers/src/pipe.o
                                                  build/kernel/components/drivers/src/dataqueue.o
                                                  build/kernel/components/drivers/serial/serial.o
                                                  build/kernel/src/thread.o
                                                  build/kernel/src/object.o
                                                  build/kernel/src/mempool.o
                                                  build/kernel/src/kservice.o
                                                  build/kernel/src/ipc.o
                                                  build/kernel/src/device.o
rt_malloc_align                                   build/kernel/src/kservice.o
rt_malloc_sethook                                 build/kernel/src/mem.o
rt_mb_control                                     build/kernel/src/ipc.o
rt_mb_create                                      build/kernel/src/ipc.o
rt_mb_delete                                      build/kernel/src/ipc.o
rt_mb_detach                                      build/kernel/src/ipc.o
rt_mb_init                                        build/kernel/src/ipc.o
rt_mb_recv                                        build/kernel/src/ipc.o
rt_mb_send                                        build/kernel/src/ipc.o
rt_mb_send_wait                                   build/kernel/src/ipc.o
rt_memcmp                                         build/kernel/src/kservice.o
rt_memcpy                                         build/kernel/src/kservice.o
                                                  build/kernel/components/drivers/serial/serial.o
                                                  build/kernel/src/mem.o
                                                  build/kernel/src/ipc.o
rt_memmove                                        build/kernel/src/kservice.o
                                                  build/kernel/components/finsh/shell.o
rt_memory_info                                    build/kernel/src/mem.o
rt_memset                                         build/kernel/src/kservice.o
                                                  build/kernel/components/drivers/src/pipe.o
                                                  build/kernel/components/drivers/serial/serial.o
                                                  build/kernel/src/thread.o
                                                  build/kernel/src/object.o
                                                  build/kernel/src/mem.o
                                                  build/kernel/src/device.o
rt_mp_alloc                                       build/kernel/src/mempool.o
rt_mp_alloc_sethook                               build/kernel/src/mempool.o
rt_mp_create                                      build/kernel/src/mempool.o
rt_mp_delete                                      build/kernel/src/mempool.o
rt_mp_detach                                      build/kernel/src/mempool.o
rt_mp_free                                        build/kernel/src/mempool.o
rt_mp_free_sethook                                build/kernel/src/mempool.o
rt_mp_init                                        build/kernel/src/mempool.o
rt_mq_control                                     build/kernel/src/ipc.o
rt_mq_create                                      build/kernel/src/ipc.o
rt_mq_delete                                      build/kernel/src/ipc.o
rt_mq_detach                                      build/kernel/src/ipc.o
rt_mq_init                                        build/kernel/src/ipc.o
rt_mq_recv                                        build/kernel/src/ipc.o
rt_mq_send                                        build/kernel/src/ipc.o
rt_mq_urgent                                      build/kernel/src/ipc.o
rt_mutex_control                                  build/kernel/src/ipc.o
rt_mutex_create                                   build/kernel/src/ipc.o
rt_mutex_delete                                   build/kernel/src/ipc.o
rt_mutex_detach                                   build/kernel/src/ipc.o
                                                  build/kernel/components/drivers/src/pipe.o
rt_mutex_init                                     build/kernel/src/ipc.o
                                                  build/kernel/components/drivers/src/pipe.o
rt_mutex_release                                  build/kernel/src/ipc.o
                                                  build/kernel/components/drivers/src/pipe.o
rt_mutex_take                                     build/kernel/src/ipc.o
                                                  build/kernel/components/drivers/src/pipe.o
rt_object_allocate                                build/kernel/src/object.o
                                                  build/kernel/src/timer.o
                                                  build/kernel/src/thread.o
                                                  build/kernel/src/mempool.o
                                                  build/kernel/src/ipc.o
rt_object_attach_sethook                          build/kernel/src/object.o
rt_object_delete                                  build/kernel/src/object.o
                                                  build/kernel/src/timer.o
                                                  build/kernel/src/thread.o
                                                  build/kernel/src/mempool.o
                                                  build/kernel/src/ipc.o
                                                  build/kernel/src/idle.o
rt_object_detach                                  build/kernel/src/object.o
                                                  build/kernel/src/timer.o
                                                  build/kernel/src/thread.o
                                                  build/kernel/src/mempool.o
                                                  build/kernel/src/ipc.o
                                                  build/kernel/src/idle.o
                                                  build/kernel/src/device.o
rt_object_detach_sethook                          build/kernel/src/object.o
rt_object_find                                    build/kernel/src/object.o
rt_object_get_information                         build/kernel/src/object.o
                                                  build/kernel/components/finsh/cmd.o
                                                  build/kernel/src/thread.o
                                                  build/kernel/src/device.o
rt_object_get_type                                build/kernel/src/object.o
                                                  build/kernel/src/timer.o
                                                  build/kernel/src/thread.o
                                                  build/kernel/src/mempool.o
                                                  build/kernel/src/ipc.o
                                                  build/kernel/src/device.o
rt_object_init                                    build/kernel/src/object.o
                                                  build/kernel/src/timer.o
                                                  build/kernel/src/thread.o
                                                  build/kernel/src/mempool.o
                                                  build/kernel/src/ipc.o
                                                  build/kernel/src/device.o
rt_object_is_systemobject                         build/kernel/src/object.o
                                                  build/kernel/src/timer.o
                                                  build/kernel/src/thread.o
                                                  build/kernel/src/mempool.o
                                                  build/kernel/src/ipc.o
                                                  build/kernel/src/idle.o
                                                  build/kernel/src/device.o
rt_object_put_hook                                build/kernel/src/object.o
                                                  build/kernel/src/timer.o
                                                  build/kernel/src/ipc.o
rt_object_put_sethook                             build/kernel/src/object.o
rt_object_take_hook                               build/kernel/src/object.o
                                                  build/kernel/src/timer.o
                                                  build/kernel/src/ipc.o
rt_object_take_sethook                            build/kernel/src/object.o
rt_object_trytake_hook                            build/kernel/src/object.o
                                                  build/kernel/src/ipc.o
rt_object_trytake_sethook                         build/kernel/src/object.o
rt_pin_attach_irq                                 build/kernel/components/drivers/misc/pin.o
rt_pin_detach_irq                                 build/kernel/components/drivers/misc/pin.o
rt_pin_irq_enable                                 build/kernel/components/drivers/misc/pin.o
rt_pin_mode                                       build/kernel/components/drivers/misc/pin.o
                                                  build/applications/main.o
rt_pin_read                                       build/kernel/components/drivers/misc/pin.o
rt_pin_write                                      build/kernel/components/drivers/misc/pin.o
                                                  build/applications/main.o
rt_pipe_close                                     build/kernel/components/drivers/src/pipe.o
rt_pipe_control                                   build/kernel/components/drivers/src/pipe.o
rt_pipe_create                                    build/kernel/components/drivers/src/pipe.o
rt_pipe_delete                                    build/kernel/components/drivers/src/pipe.o
rt_pipe_open                                      build/kernel/components/drivers/src/pipe.o
rt_pipe_read                                      build/kernel/components/drivers/src/pipe.o
rt_pipe_write                                     build/kernel/components/drivers/src/pipe.o
rt_rbb_blk_alloc                                  build/kernel/components/drivers/src/ringblk_buf.o
rt_rbb_blk_buf                                    build/kernel/components/drivers/src/ringblk_buf.o
rt_rbb_blk_free                                   build/kernel/components/drivers/src/ringblk_buf.o
rt_rbb_blk_get                                    build/kernel/components/drivers/src/ringblk_buf.o
rt_rbb_blk_put                                    build/kernel/components/drivers/src/ringblk_buf.o
rt_rbb_blk_queue_buf                              build/kernel/components/drivers/src/ringblk_buf.o
rt_rbb_blk_queue_free                             build/kernel/components/drivers/src/ringblk_buf.o
rt_rbb_blk_queue_get                              build/kernel/components/drivers/src/ringblk_buf.o
rt_rbb_blk_queue_len                              build/kernel/components/drivers/src/ringblk_buf.o
rt_rbb_blk_size                                   build/kernel/components/drivers/src/ringblk_buf.o
rt_rbb_create                                     build/kernel/components/drivers/src/ringblk_buf.o
rt_rbb_destroy                                    build/kernel/components/drivers/src/ringblk_buf.o
rt_rbb_get_buf_size                               build/kernel/components/drivers/src/ringblk_buf.o
rt_rbb_init                                       build/kernel/components/drivers/src/ringblk_buf.o
rt_rbb_next_blk_queue_len                         build/kernel/components/drivers/src/ringblk_buf.o
rt_realloc                                        build/kernel/src/mem.o
                                                  build/kernel/components/libc/compilers/minilibc/stdlib.o
rt_ringbuffer_create                              build/kernel/components/drivers/src/ringbuffer.o
                                                  build/kernel/components/drivers/src/pipe.o
rt_ringbuffer_data_len                            build/kernel/components/drivers/src/ringbuffer.o
rt_ringbuffer_destroy                             build/kernel/components/drivers/src/ringbuffer.o
                                                  build/kernel/components/drivers/src/pipe.o
rt_ringbuffer_get                                 build/kernel/components/drivers/src/ringbuffer.o
                                                  build/kernel/components/drivers/src/pipe.o
rt_ringbuffer_getchar                             build/kernel/components/drivers/src/ringbuffer.o
rt_ringbuffer_init                                build/kernel/components/drivers/src/ringbuffer.o
rt_ringbuffer_put                                 build/kernel/components/drivers/src/ringbuffer.o
                                                  build/kernel/components/drivers/src/pipe.o
rt_ringbuffer_put_force                           build/kernel/components/drivers/src/ringbuffer.o
rt_ringbuffer_putchar                             build/kernel/components/drivers/src/ringbuffer.o
rt_ringbuffer_putchar_force                       build/kernel/components/drivers/src/ringbuffer.o
rt_ringbuffer_reset                               build/kernel/components/drivers/src/ringbuffer.o
rt_schedule                                       build/kernel/src/scheduler.o
                                                  build/kernel/components/drivers/src/workqueue.o
                                                  build/kernel/components/drivers/src/waitqueue.o
                                                  build/kernel/components/drivers/src/dataqueue.o
                                                  build/kernel/components/drivers/src/completion.o
                                                  build/kernel/src/thread.o
                                                  build/kernel/src/mempool.o
                                                  build/kernel/src/ipc.o
rt_schedule_insert_thread                         build/kernel/src/scheduler.o
                                                  build/kernel/src/thread.o
rt_schedule_remove_thread                         build/kernel/src/scheduler.o
                                                  build/kernel/src/thread.o
rt_scheduler_sethook                              build/kernel/src/scheduler.o
rt_sem_control                                    build/kernel/src/ipc.o
rt_sem_create                                     build/kernel/src/ipc.o
rt_sem_delete                                     build/kernel/src/ipc.o
rt_sem_detach                                     build/kernel/src/ipc.o
rt_sem_init                                       build/kernel/src/ipc.o
                                                  build/kernel/components/finsh/shell.o
                                                  build/kernel/components/drivers/src/workqueue.o
                                                  build/kernel/src/mem.o
rt_sem_release                                    build/kernel/src/ipc.o
                                                  build/kernel/components/finsh/shell.o
                                                  build/kernel/components/drivers/src/workqueue.o
                                                  build/kernel/src/mem.o
rt_sem_take                                       build/kernel/src/ipc.o
                                                  build/kernel/components/finsh/shell.o
                                                  build/kernel/components/drivers/src/workqueue.o
                                                  build/kernel/src/mem.o
rt_sem_trytake                                    build/kernel/src/ipc.o
                                                  build/kernel/components/drivers/src/workqueue.o
rt_set_errno                                      build/kernel/src/kservice.o
                                                  build/kernel/components/drivers/src/pipe.o
                                                  build/kernel/components/drivers/serial/serial.o
                                                  build/kernel/src/mempool.o
                                                  build/kernel/src/device.o
rt_show_version                                   build/kernel/src/kservice.o
                                                  build/kernel/components/finsh/cmd.o
                                                  build/kernel/src/components.o
rt_snprintf                                       build/kernel/src/kservice.o
rt_sprintf                                        build/kernel/src/kservice.o
                                                  build/kernel/src/idle.o
rt_strcasecmp                                     build/kernel/src/kservice.o
rt_strcmp                                         build/kernel/src/kservice.o
rt_strdup                                         build/kernel/src/kservice.o
rt_strlen                                         build/kernel/src/kservice.o
                                                  build/kernel/components/libc/compilers/minilibc/string.o
rt_strncmp                                        build/kernel/src/kservice.o
                                                  build/kernel/src/thread.o
                                                  build/kernel/src/object.o
                                                  build/kernel/src/device.o
rt_strncpy                                        build/kernel/src/kservice.o
                                                  build/kernel/components/libc/compilers/minilibc/string.o
                                                  build/kernel/components/finsh/msh.o
                                                  build/kernel/src/object.o
rt_strnlen                                        build/kernel/src/kservice.o
rt_strstr                                         build/kernel/src/kservice.o
rt_system_heap_init                               build/kernel/src/mem.o
                                                  /home/ldq/rk-linux/rt-thread/bsp/stm32/libraries/HAL_Drivers/drv_common.o
rt_system_object_init                             build/kernel/src/object.o
rt_system_scheduler_init                          build/kernel/src/scheduler.o
                                                  build/kernel/src/components.o
rt_system_scheduler_start                         build/kernel/src/scheduler.o
                                                  build/kernel/src/components.o
rt_system_tick_init                               build/kernel/src/clock.o
rt_system_timer_init                              build/kernel/src/timer.o
                                                  build/kernel/src/components.o
rt_system_timer_thread_init                       build/kernel/src/timer.o
                                                  build/kernel/src/components.o
rt_thread_control                                 build/kernel/src/thread.o
                                                  build/kernel/src/ipc.o
rt_thread_create                                  build/kernel/src/thread.o
                                                  build/kernel/components/finsh/shell.o
                                                  build/kernel/components/drivers/src/workqueue.o
                                                  build/kernel/src/components.o
rt_thread_defunct                                 build/kernel/src/scheduler.o
                                                  build/kernel/src/thread.o
                                                  build/kernel/src/idle.o
rt_thread_delay                                   build/kernel/src/thread.o
rt_thread_delete                                  build/kernel/src/thread.o
                                                  build/kernel/components/drivers/src/workqueue.o
rt_thread_detach                                  build/kernel/src/thread.o
rt_thread_exit                                    build/kernel/src/thread.o
rt_thread_find                                    build/kernel/src/thread.o
rt_thread_idle_delhook                            build/kernel/src/idle.o
rt_thread_idle_excute                             build/kernel/src/idle.o
rt_thread_idle_gethandler                         build/kernel/src/idle.o
rt_thread_idle_init                               build/kernel/src/idle.o
                                                  build/kernel/src/components.o
rt_thread_idle_sethook                            build/kernel/src/idle.o
rt_thread_init                                    build/kernel/src/thread.o
                                                  build/kernel/src/idle.o
rt_thread_inited_sethook                          build/kernel/src/thread.o
rt_thread_mdelay                                  build/kernel/src/thread.o
                                                  build/applications/main.o
rt_thread_priority_table                          build/kernel/src/scheduler.o
rt_thread_ready_priority_group                    build/kernel/src/scheduler.o
rt_thread_resume                                  build/kernel/src/thread.o
                                                  build/kernel/components/drivers/src/workqueue.o
                                                  build/kernel/components/drivers/src/waitqueue.o
                                                  build/kernel/components/drivers/src/dataqueue.o
                                                  build/kernel/components/drivers/src/completion.o
                                                  build/kernel/src/mempool.o
                                                  build/kernel/src/ipc.o
rt_thread_resume_sethook                          build/kernel/src/thread.o
rt_thread_self                                    build/kernel/src/thread.o
                                                  build/kernel/components/drivers/src/workqueue.o
                                                  build/kernel/components/drivers/src/waitqueue.o
                                                  build/kernel/components/drivers/src/dataqueue.o
                                                  build/kernel/components/drivers/src/completion.o
                                                  build/kernel/libcpu/arm/cortex-m3/cpuport.o
                                                  build/kernel/src/mempool.o
                                                  build/kernel/src/kservice.o
                                                  build/kernel/src/ipc.o
                                                  build/kernel/src/device.o
                                                  build/kernel/src/clock.o
rt_thread_sleep                                   build/kernel/src/thread.o
rt_thread_startup                                 build/kernel/src/thread.o
                                                  build/kernel/components/finsh/shell.o
                                                  build/kernel/components/drivers/src/workqueue.o
                                                  build/kernel/src/idle.o
                                                  build/kernel/src/components.o
rt_thread_suspend                                 build/kernel/src/thread.o
                                                  build/kernel/components/drivers/src/workqueue.o
                                                  build/kernel/components/drivers/src/waitqueue.o
                                                  build/kernel/components/drivers/src/dataqueue.o
                                                  build/kernel/components/drivers/src/completion.o
                                                  build/kernel/src/mempool.o
                                                  build/kernel/src/ipc.o
rt_thread_suspend_sethook                         build/kernel/src/thread.o
rt_thread_switch_interrupt_flag                   build/kernel/libcpu/arm/cortex-m3/cpuport.o
                                                  build/kernel/libcpu/arm/cortex-m3/context_gcc.o
rt_thread_timeout                                 build/kernel/src/thread.o
rt_thread_yield                                   build/kernel/src/thread.o
                                                  build/kernel/src/clock.o
rt_tick_from_millisecond                          build/kernel/src/clock.o
                                                  build/kernel/components/drivers/src/waitqueue.o
                                                  build/kernel/src/thread.o
rt_tick_get                                       build/kernel/src/clock.o
                                                  /home/ldq/rk-linux/rt-thread/bsp/stm32/libraries/HAL_Drivers/drv_common.o
                                                  build/kernel/components/libc/compilers/minilibc/time.o
                                                  build/kernel/components/finsh/cmd.o
                                                  build/kernel/src/timer.o
                                                  build/kernel/src/mempool.o
                                                  build/kernel/src/ipc.o
rt_tick_increase                                  build/kernel/src/clock.o
                                                  /home/ldq/rk-linux/rt-thread/bsp/stm32/libraries/HAL_Drivers/drv_common.o
rt_tick_set                                       build/kernel/src/clock.o
rt_timer_check                                    build/kernel/src/timer.o
                                                  build/kernel/src/clock.o
rt_timer_control                                  build/kernel/src/timer.o
                                                  build/kernel/components/drivers/src/waitqueue.o
                                                  build/kernel/components/drivers/src/dataqueue.o
                                                  build/kernel/components/drivers/src/completion.o
                                                  build/kernel/src/thread.o
                                                  build/kernel/src/mempool.o
                                                  build/kernel/src/ipc.o
rt_timer_create                                   build/kernel/src/timer.o
rt_timer_delete                                   build/kernel/src/timer.o
rt_timer_detach                                   build/kernel/src/timer.o
                                                  build/kernel/components/drivers/src/workqueue.o
                                                  build/kernel/src/thread.o
rt_timer_enter_sethook                            build/kernel/src/timer.o
rt_timer_exit_sethook                             build/kernel/src/timer.o
rt_timer_init                                     build/kernel/src/timer.o
                                                  build/kernel/components/drivers/src/workqueue.o
                                                  build/kernel/src/thread.o
rt_timer_next_timeout_tick                        build/kernel/src/timer.o
rt_timer_start                                    build/kernel/src/timer.o
                                                  build/kernel/components/drivers/src/workqueue.o
                                                  build/kernel/components/drivers/src/waitqueue.o
                                                  build/kernel/components/drivers/src/dataqueue.o
                                                  build/kernel/components/drivers/src/completion.o
                                                  build/kernel/src/thread.o
                                                  build/kernel/src/mempool.o
                                                  build/kernel/src/ipc.o
rt_timer_stop                                     build/kernel/src/timer.o
                                                  build/kernel/components/drivers/src/workqueue.o
                                                  build/kernel/src/thread.o
rt_vsnprintf                                      build/kernel/src/kservice.o
rt_vsprintf                                       build/kernel/src/kservice.o
rt_workqueue_cancel_all_work                      build/kernel/components/drivers/src/workqueue.o
rt_workqueue_cancel_work                          build/kernel/components/drivers/src/workqueue.o
rt_workqueue_cancel_work_sync                     build/kernel/components/drivers/src/workqueue.o
rt_workqueue_create                               build/kernel/components/drivers/src/workqueue.o
rt_workqueue_critical_work                        build/kernel/components/drivers/src/workqueue.o
rt_workqueue_destroy                              build/kernel/components/drivers/src/workqueue.o
rt_workqueue_dowork                               build/kernel/components/drivers/src/workqueue.o
rt_workqueue_submit_work                          build/kernel/components/drivers/src/workqueue.o
rt_wqueue_add                                     build/kernel/components/drivers/src/waitqueue.o
rt_wqueue_remove                                  build/kernel/components/drivers/src/waitqueue.o
rt_wqueue_wait                                    build/kernel/components/drivers/src/waitqueue.o
rt_wqueue_wakeup                                  build/kernel/components/drivers/src/waitqueue.o
rtthread_startup                                  build/kernel/src/components.o
shell                                             build/kernel/components/finsh/shell.o
simple_strtol                                     build/kernel/components/libc/compilers/minilibc/string.o
simple_strtoll                                    build/kernel/components/libc/compilers/minilibc/string.o
simple_strtoul                                    build/kernel/components/libc/compilers/minilibc/string.o
simple_strtoull                                   build/kernel/components/libc/compilers/minilibc/string.o
sin                                               build/kernel/components/libc/compilers/minilibc/math.o
snprintf                                          build/kernel/src/kservice.o
software_init_hook                                /home/ldq/rk-linux/prebuilts/gcc-arm-none-eabi-7-2018-q2-update/bin/../lib/gcc/arm-none-eabi/7.3.1/../../../../arm-none-eabi/lib/thumb/v7-m/crt0.o
sprintf                                           build/kernel/src/kservice.o
srand                                             build/kernel/components/libc/compilers/minilibc/rand.o
srandom                                           build/kernel/components/libc/compilers/minilibc/rand.o
sscanf                                            build/kernel/components/libc/compilers/minilibc/string.o
strcasecmp                                        build/kernel/src/kservice.o
strcat                                            build/kernel/components/libc/compilers/minilibc/string.o
strchr                                            build/kernel/components/libc/compilers/minilibc/string.o
strcmp                                            build/kernel/components/libc/compilers/minilibc/string.o
strcpy                                            build/kernel/components/libc/compilers/minilibc/string.o
                                                  build/kernel/components/finsh/shell.o
strcspn                                           build/kernel/components/libc/compilers/minilibc/string.o
strdup                                            build/kernel/src/kservice.o
strlcpy                                           build/kernel/components/libc/compilers/minilibc/string.o
strlen                                            build/kernel/src/kservice.o
                                                  build/kernel/components/libc/compilers/minilibc/string.o
                                                  build/kernel/components/finsh/msh.o
                                                  build/kernel/components/finsh/shell.o
strncasecmp                                       build/kernel/components/libc/compilers/minilibc/string.o
strncat                                           build/kernel/components/libc/compilers/minilibc/string.o
strncmp                                           build/kernel/components/libc/compilers/minilibc/string.o
                                                  build/kernel/src/kservice.o
                                                  build/kernel/components/finsh/msh.o
                                                  build/kernel/components/finsh/cmd.o
strncpy                                           build/kernel/components/libc/compilers/minilibc/string.o
                                                  build/kernel/src/kservice.o
                                                  build/kernel/components/finsh/shell.o
strrchr                                           build/kernel/components/libc/compilers/minilibc/string.o
strspn                                            build/kernel/components/libc/compilers/minilibc/string.o
strstr                                            build/kernel/src/kservice.o
strtok                                            build/kernel/components/libc/compilers/minilibc/string.o
strtok_r                                          build/kernel/components/libc/compilers/minilibc/string.o
strtol                                            build/kernel/components/libc/compilers/minilibc/string.o
strtoll                                           build/kernel/components/libc/compilers/minilibc/string.o
time                                              build/kernel/components/libc/compilers/minilibc/time.o
tolower                                           build/kernel/components/libc/compilers/minilibc/string.o
toupper                                           build/kernel/components/libc/compilers/minilibc/string.o
uwTick                                            /home/ldq/rk-linux/rt-thread/bsp/stm32/libraries/STM32F1xx_HAL/STM32F1xx_HAL_Driver/Src/stm32f1xx_hal.o
uwTickFreq                                        /home/ldq/rk-linux/rt-thread/bsp/stm32/libraries/STM32F1xx_HAL/STM32F1xx_HAL_Driver/Src/stm32f1xx_hal.o
uwTickPrio                                        /home/ldq/rk-linux/rt-thread/bsp/stm32/libraries/STM32F1xx_HAL/STM32F1xx_HAL_Driver/Src/stm32f1xx_hal.o
version                                           build/kernel/components/finsh/cmd.o
vsprintf                                          build/kernel/src/kservice.o
vsscanf                                           build/kernel/components/libc/compilers/minilibc/string.o
